(dp0
S'2012_13.0'
p1
I498448
sS'2002_13.0'
p2
I486821
sS'2014_51.0401'
p3
I23807
sS'2004_51.0401'
p4
I18385
sS'2002_26.0'
p5
I58031
sS'2002_51.1201'
p6
I65918
sS'2008_51.0401'
p7
I0
sS'1998_26.0'
p8
I9693
sS'2002_27.0'
p9
I18026
sS'2008_14.0'
p10
I133190
sS'1998_27.0'
p11
I3329
sS'2002_14.0'
p12
I120326
sS'2014_51.1201'
p13
I82895
sS'1998_52.0'
p14
I65735
sS'2010_13.0'
p15
I575184
sS'2012_14.0'
p16
I152193
sS'2000_13.0'
p17
I351752
sS'2006_51.1201'
p18
I73352
sS'1998_14.0'
p19
I22875
sS'2004_13.0'
p20
I530479
sS'2002_22.0101'
p21
I131917
sS'2006_40.0'
p22
I46759
sS'2008_13.0'
p23
I564372
sS'2010_52.0'
p24
I478866
sS'2004_22.0101'
p25
I141503
sS'1998_51.1201'
p26
I13661
sS'2004_14.0'
p27
I124888
sS'2008_52.0'
p28
I445637
sS'2000_27.0'
p29
I14048
sS'2000_22.0101'
p30
I106652
sS'1998_22.0101'
p31
I39537
sS'2012_40.0'
p32
I52983
sS'2008_51.1201'
p33
I0
sS'2002_40.0'
p34
I43690
sS'2012_51.1201'
p35
I80656
sS'2010_51.1201'
p36
I77717
sS'1998_51.0401'
p37
I4083
sS'2000_26.0'
p38
I47356
sS'2006_27.0'
p39
I19976
sS'2002_51.0401'
p40
I20916
sS'2006_52.0'
p41
I348989
sS'1998_40.0'
p42
I7283
sS'2014_52.0'
p43
I463914
sS'2014_22.0101'
p44
I123926
sS'2012_22.0101'
p45
I143282
sS'2006_22.0101'
p46
I142958
sS'2004_51.1201'
p47
I68882
sS'2000_40.0'
p48
I37069
sS'2014_13.0'
p49
I469036
sS'1998_13.0'
p50
I74553
sS'2002_52.0'
p51
I352767
sS'2012_26.0'
p52
I83097
sS'2010_27.0'
p53
I23989
sS'2000_51.0401'
p54
I14557
sS'2006_14.0'
p55
I119261
sS'2014_27.0'
p56
I28013
sS'2010_22.0101'
p57
I152902
sS'2010_51.0401'
p58
I20275
sS'2010_40.0'
p59
I51943
sS'2010_14.0'
p60
I146200
sS'2008_26.0'
p61
I74591
sS'2000_51.1201'
p62
I61219
sS'2012_27.0'
p63
I26240
sS'2014_14.0'
p64
I169855
sS'2004_26.0'
p65
I72711
sS'2012_51.0401'
p66
I21889
sS'2008_22.0101'
p67
I0
sS'2004_27.0'
p68
I21231
sS'2004_52.0'
p69
I370014
sS'2000_14.0'
p70
I95820
sS'2000_52.0'
p71
I255134
sS'2012_52.0'
p72
I478697
sS'2006_13.0'
p73
I525491
sS'2004_40.0'
p74
I48424
sS'2008_27.0'
p75
I21336
sS'2006_26.0'
p76
I74121
sS'2010_26.0'
p77
I82088
sS'2014_26.0'
p78
I85495
sS'2006_51.0401'
p79
I19170
sS'2008_40.0'
p80
I47524
sS'2014_40.0'
p81
I52817
s.