(dp0
S'2008_22.0101_White'
p1
I0
sS'2010_13.0_Black or African American'
p2
cnumpy.core.multiarray
scalar
p3
(cnumpy
dtype
p4
(S'i8'
p5
I0
I1
tp6
Rp7
(I3
S'<'
p8
NNNI-1
I-1
I0
tp9
bS'@&\x01\x00\x00\x00\x00\x00'
p10
tp11
Rp12
sS'2004_27.0_American Indian or Alaska Native'
p13
I45
sS'2012_40.0_Black or African American'
p14
g3
(g7
S'\xf9\x04\x00\x00\x00\x00\x00\x00'
p15
tp16
Rp17
sS'2014_26.0_Asian'
p18
g3
(g7
S'\x08\x1e\x00\x00\x00\x00\x00\x00'
p19
tp20
Rp21
sS'2012_52.0_Native Hawaiian or Other Pacific Islander'
p22
g3
(g7
S'\xe6\x04\x00\x00\x00\x00\x00\x00'
p23
tp24
Rp25
sS'2010_27.0_American Indian or Alaska Native'
p26
g3
(g7
S'+\x00\x00\x00\x00\x00\x00\x00'
p27
tp28
Rp29
sS'2010_14.0_Asian'
p30
g3
(g7
S'\x9d*\x00\x00\x00\x00\x00\x00'
p31
tp32
Rp33
sS'2002_26.0_American Indian or Alaska Native'
p34
I206
sS'2012_51.1201_American Indian or Alaska Native'
p35
g3
(g7
S'b\x01\x00\x00\x00\x00\x00\x00'
p36
tp37
Rp38
sS'2010_26.0_Native Hawaiian or Other Pacific Islander'
p39
g3
(g7
S'\xdd\x00\x00\x00\x00\x00\x00\x00'
p40
tp41
Rp42
sS'2014_51.1201_Native Hawaiian or Other Pacific Islander'
p43
g3
(g7
S'\x93\x00\x00\x00\x00\x00\x00\x00'
p44
tp45
Rp46
sS'2010_51.0401_White'
p47
g3
(g7
S'T,\x00\x00\x00\x00\x00\x00'
p48
tp49
Rp50
sS'2014_22.0101_Native Hawaiian or Other Pacific Islander'
p51
g3
(g7
S'\xf3\x00\x00\x00\x00\x00\x00\x00'
p52
tp53
Rp54
sS'2006_26.0_Native Hawaiian or Other Pacific Islander'
p55
I2585
sS'2010_52.0_Native Hawaiian or Other Pacific Islander'
p56
g3
(g7
S'\xee\x04\x00\x00\x00\x00\x00\x00'
p57
tp58
Rp59
sS'2010_27.0_Black or African American'
p60
g3
(g7
S'*\x03\x00\x00\x00\x00\x00\x00'
p61
tp62
Rp63
sS'2012_14.0_American Indian or Alaska Native'
p64
g3
(g7
S'*\x01\x00\x00\x00\x00\x00\x00'
p65
tp66
Rp67
sS'2014_40.0_Hispanic'
p68
g3
(g7
S'\xd1\t\x00\x00\x00\x00\x00\x00'
p69
tp70
Rp71
sS'2010_22.0101_Hispanic'
p72
g3
(g7
S'Z2\x00\x00\x00\x00\x00\x00'
p73
tp74
Rp75
sS'2010_51.1201_White'
p76
g3
(g7
S'!\xa8\x00\x00\x00\x00\x00\x00'
p77
tp78
Rp79
sS'2004_40.0_Asian'
p80
I1839
sS'2014_22.0101_Black or African American'
p81
g3
(g7
S'()\x00\x00\x00\x00\x00\x00'
p82
tp83
Rp84
sS'1998_40.0_American Indian or Alaska Native'
p85
I29
sS'2002_51.1201_Black or African American'
p86
I4961
sS'2014_51.0401_American Indian or Alaska Native'
p87
g3
(g7
S'A\x00\x00\x00\x00\x00\x00\x00'
p88
tp89
Rp90
sS'2004_14.0_Hispanic'
p91
I4884
sS'2012_52.0_Hispanic'
p92
g3
(g7
S'\x92\x87\x00\x00\x00\x00\x00\x00'
p93
tp94
Rp95
sS'2012_51.0401_Native Hawaiian or Other Pacific Islander'
p96
g3
(g7
S'%\x00\x00\x00\x00\x00\x00\x00'
p97
tp98
Rp99
sS'2010_27.0_Hispanic'
p100
g3
(g7
S'\xbb\x03\x00\x00\x00\x00\x00\x00'
p101
tp102
Rp103
sS'2004_27.0_Asian'
p104
I1294
sS'2004_22.0101_White'
p105
I94965
sS'2012_26.0_White'
p106
g3
(g7
S'\xc7\xa2\x00\x00\x00\x00\x00\x00'
p107
tp108
Rp109
sS'1998_13.0_Hispanic'
p110
I4140
sS'1998_51.1201_Hispanic'
p111
I884
sS'2014_51.1201_White'
p112
g3
(g7
S'2\xae\x00\x00\x00\x00\x00\x00'
p113
tp114
Rp115
sS'2008_51.1201_White'
p116
I0
sS'2010_13.0_American Indian or Alaska Native'
p117
g3
(g7
S'\xd2\x0c\x00\x00\x00\x00\x00\x00'
p118
tp119
Rp120
sS'2006_14.0_Black or African American'
p121
I3493
sS'1998_51.1201_Native Hawaiian or Other Pacific Islander'
p122
I1354
sS'2014_13.0_Hispanic'
p123
g3
(g7
S'\x01\xb6\x00\x00\x00\x00\x00\x00'
p124
tp125
Rp126
sS'2012_52.0_Asian'
p127
g3
(g7
S'@n\x00\x00\x00\x00\x00\x00'
p128
tp129
Rp130
sS'1998_52.0_Native Hawaiian or Other Pacific Islander'
p131
I2254
sS'2000_26.0_Native Hawaiian or Other Pacific Islander'
p132
I1622
sS'2000_51.1201_Native Hawaiian or Other Pacific Islander'
p133
I6161
sS'2002_27.0_Native Hawaiian or Other Pacific Islander'
p134
I484
sS'2004_51.0401_Native Hawaiian or Other Pacific Islander'
p135
I1592
sS'2014_22.0101_Asian'
p136
g3
(g7
S'\xfc\x1e\x00\x00\x00\x00\x00\x00'
p137
tp138
Rp139
sS'2010_22.0101_White'
p140
g3
(g7
S'\xac\x82\x01\x00\x00\x00\x00\x00'
p141
tp142
Rp143
sS'2002_14.0_Hispanic'
p144
I3793
sS'1998_14.0_American Indian or Alaska Native'
p145
I39
sS'2002_27.0_Hispanic'
p146
I535
sS'2014_26.0_American Indian or Alaska Native'
p147
g3
(g7
S'\x03\x01\x00\x00\x00\x00\x00\x00'
p148
tp149
Rp150
sS'1998_27.0_Black or African American'
p151
I144
sS'2008_27.0_Native Hawaiian or Other Pacific Islander'
p152
I770
sS'1998_22.0101_White'
p153
I27500
sS'2000_13.0_Asian'
p154
I7548
sS'2010_27.0_Native Hawaiian or Other Pacific Islander'
p155
g3
(g7
S'\x14\x00\x00\x00\x00\x00\x00\x00'
p156
tp157
Rp158
sS'2014_51.1201_Asian'
p159
g3
(g7
S'\x89=\x00\x00\x00\x00\x00\x00'
p160
tp161
Rp162
sS'1998_26.0_Black or African American'
p163
I444
sS'2006_51.1201_American Indian or Alaska Native'
p164
I542
sS'2002_26.0_White'
p165
I32374
sS'2012_40.0_Native Hawaiian or Other Pacific Islander'
p166
g3
(g7
S'#\x00\x00\x00\x00\x00\x00\x00'
p167
tp168
Rp169
sS'2000_14.0_Asian'
p170
I6476
sS'2004_22.0101_American Indian or Alaska Native'
p171
I1086
sS'2008_51.1201_Hispanic'
p172
I0
sS'2012_27.0_American Indian or Alaska Native'
p173
g3
(g7
S'(\x00\x00\x00\x00\x00\x00\x00'
p174
tp175
Rp176
sS'2006_51.0401_Asian'
p177
I3356
sS'2004_14.0_White'
p178
I42818
sS'2006_51.0401_White'
p179
I11168
sS'2008_52.0_American Indian or Alaska Native'
p180
I2085
sS'2006_14.0_White'
p181
I41424
sS'2012_14.0_Asian'
p182
g3
(g7
S'\xec(\x00\x00\x00\x00\x00\x00'
p183
tp184
Rp185
sS'2010_51.1201_Hispanic'
p186
g3
(g7
S'\x07\x14\x00\x00\x00\x00\x00\x00'
p187
tp188
Rp189
sS'2002_26.0_Black or African American'
p190
I2296
sS'2006_26.0_White'
p191
I39226
sS'2012_22.0101_Hispanic'
p192
g3
(g7
S'c5\x00\x00\x00\x00\x00\x00'
p193
tp194
Rp195
sS'2010_13.0_Hispanic'
p196
g3
(g7
S'\\\xaf\x00\x00\x00\x00\x00\x00'
p197
tp198
Rp199
sS'1998_22.0101_Black or African American'
p200
I3172
sS'2006_52.0_Asian'
p201
I23986
sS'2004_13.0_Black or African American'
p202
I58270
sS'2010_27.0_White'
p203
g3
(g7
S'l(\x00\x00\x00\x00\x00\x00'
p204
tp205
Rp206
sS'2000_51.0401_White'
p207
I9091
sS'2004_40.0_Black or African American'
p208
I1376
sS'2010_51.0401_Black or African American'
p209
g3
(g7
S'\x12\x04\x00\x00\x00\x00\x00\x00'
p210
tp211
Rp212
sS'2012_14.0_White'
p213
g3
(g7
S'p\xc7\x00\x00\x00\x00\x00\x00'
p214
tp215
Rp216
sS'2010_52.0_Black or African American'
p217
g3
(g7
S'\x90\x1a\x01\x00\x00\x00\x00\x00'
p218
tp219
Rp220
sS'2010_14.0_American Indian or Alaska Native'
p221
g3
(g7
S'\x1e\x01\x00\x00\x00\x00\x00\x00'
p222
tp223
Rp224
sS'2004_13.0_Asian'
p225
I12497
sS'2012_27.0_Hispanic'
p226
g3
(g7
S'K\x04\x00\x00\x00\x00\x00\x00'
p227
tp228
Rp229
sS'2014_51.1201_American Indian or Alaska Native'
p230
g3
(g7
S'\xdf\x01\x00\x00\x00\x00\x00\x00'
p231
tp232
Rp233
sS'2002_14.0_Native Hawaiian or Other Pacific Islander'
p234
I6401
sS'2014_52.0_Native Hawaiian or Other Pacific Islander'
p235
g3
(g7
S'\xab\x05\x00\x00\x00\x00\x00\x00'
p236
tp237
Rp238
sS'1998_13.0_American Indian or Alaska Native'
p239
I544
sS'2004_13.0_Hispanic'
p240
I40316
sS'2002_51.1201_Asian'
p241
I12101
sS'2014_26.0_White'
p242
g3
(g7
S'\xe4\xa5\x00\x00\x00\x00\x00\x00'
p243
tp244
Rp245
sS'2008_22.0101_Hispanic'
p246
I0
sS'2008_14.0_Native Hawaiian or Other Pacific Islander'
p247
I7301
sS'2012_51.1201_White'
p248
g3
(g7
S'\xad\xac\x00\x00\x00\x00\x00\x00'
p249
tp250
Rp251
sS'2004_52.0_Hispanic'
p252
I21725
sS'2006_52.0_American Indian or Alaska Native'
p253
I1653
sS'2014_14.0_White'
p254
g3
(g7
S'\xe7\xc0\x00\x00\x00\x00\x00\x00'
p255
tp256
Rp257
sS'1998_27.0_Hispanic'
p258
I107
sS'2014_22.0101_White'
p259
g3
(g7
S'\xdf#\x01\x00\x00\x00\x00\x00'
p260
tp261
Rp262
sS'1998_27.0_Asian'
p263
I175
sS'2006_27.0_Native Hawaiian or Other Pacific Islander'
p264
I727
sS'2000_13.0_Native Hawaiian or Other Pacific Islander'
p265
I3620
sS'2002_52.0_Black or African American'
p266
I31362
sS'2000_51.0401_Native Hawaiian or Other Pacific Islander'
p267
I1556
sS'2012_22.0101_American Indian or Alaska Native'
p268
g3
(g7
S'\xd9\x03\x00\x00\x00\x00\x00\x00'
p269
tp270
Rp271
sS'2010_40.0_American Indian or Alaska Native'
p272
g3
(g7
S'\xa6\x00\x00\x00\x00\x00\x00\x00'
p273
tp274
Rp275
sS'1998_13.0_Asian'
p276
I1728
sS'2014_52.0_Hispanic'
p277
g3
(g7
S'\x1e\x8e\x00\x00\x00\x00\x00\x00'
p278
tp279
Rp280
sS'1998_22.0101_Hispanic'
p281
I2234
sS'2010_52.0_American Indian or Alaska Native'
p282
g3
(g7
S'\xd5\x08\x00\x00\x00\x00\x00\x00'
p283
tp284
Rp285
sS'2010_40.0_White'
p286
g3
(g7
S'\xeba\x00\x00\x00\x00\x00\x00'
p287
tp288
Rp289
sS'2008_52.0_Asian'
p290
I28621
sS'2014_40.0_Asian'
p291
g3
(g7
S'\x16\t\x00\x00\x00\x00\x00\x00'
p292
tp293
Rp294
sS'2010_22.0101_Native Hawaiian or Other Pacific Islander'
p295
g3
(g7
S'\x03\x02\x00\x00\x00\x00\x00\x00'
p296
tp297
Rp298
sS'2002_27.0_Black or African American'
p299
I547
sS'2000_52.0_Black or African American'
p300
I19073
sS'1998_22.0101_Native Hawaiian or Other Pacific Islander'
p301
I1276
sS'2014_51.1201_Black or African American'
p302
g3
(g7
S'\xf2\x13\x00\x00\x00\x00\x00\x00'
p303
tp304
Rp305
sS'2004_27.0_White'
p306
I9349
sS'2012_22.0101_Asian'
p307
g3
(g7
S'\x10$\x00\x00\x00\x00\x00\x00'
p308
tp309
Rp310
sS'2010_40.0_Black or African American'
p311
g3
(g7
S'\x1e\x05\x00\x00\x00\x00\x00\x00'
p312
tp313
Rp314
sS'2006_40.0_Hispanic'
p315
I1641
sS'2008_51.0401_Native Hawaiian or Other Pacific Islander'
p316
I0
sS'1998_52.0_Black or African American'
p317
I5034
sS'2006_22.0101_Black or African American'
p318
I9536
sS'2010_14.0_White'
p319
g3
(g7
S'\x1e\xc3\x00\x00\x00\x00\x00\x00'
p320
tp321
Rp322
sS'2012_22.0101_Native Hawaiian or Other Pacific Islander'
p323
g3
(g7
S'\x1c\x01\x00\x00\x00\x00\x00\x00'
p324
tp325
Rp326
sS'2006_14.0_American Indian or Alaska Native'
p327
I396
sS'2008_40.0_White'
p328
I20876
sS'2012_51.1201_Black or African American'
p329
g3
(g7
S'\xca\x13\x00\x00\x00\x00\x00\x00'
p330
tp331
Rp332
sS'2012_40.0_American Indian or Alaska Native'
p333
g3
(g7
S'\x96\x00\x00\x00\x00\x00\x00\x00'
p334
tp335
Rp336
sS'2002_51.1201_Hispanic'
p337
I4032
sS'2014_13.0_Black or African American'
p338
g3
(g7
S'\xf6\x03\x01\x00\x00\x00\x00\x00'
p339
tp340
Rp341
sS'2004_51.0401_Black or African American'
p342
I916
sS'2008_52.0_Black or African American'
p343
I58277
sS'2004_52.0_Native Hawaiian or Other Pacific Islander'
p344
I14256
sS'2014_13.0_White'
p345
g3
(g7
S'\x87G\x04\x00\x00\x00\x00\x00'
p346
tp347
Rp348
sS'2000_51.1201_Black or African American'
p349
I4337
sS'2000_27.0_White'
p350
I6387
sS'2006_52.0_White'
p351
I176146
sS'2006_26.0_Asian'
p352
I5679
sS'2000_27.0_Hispanic'
p353
I437
sS'2010_14.0_Hispanic'
p354
g3
(g7
S'\xcf\x16\x00\x00\x00\x00\x00\x00'
p355
tp356
Rp357
sS'2004_51.0401_Asian'
p358
I3240
sS'2012_26.0_Hispanic'
p359
g3
(g7
S'_\x14\x00\x00\x00\x00\x00\x00'
p360
tp361
Rp362
sS'2014_52.0_White'
p363
g3
(g7
S'I\x1a\x03\x00\x00\x00\x00\x00'
p364
tp365
Rp366
sS'2004_52.0_Asian'
p367
I23481
sS'2010_51.1201_American Indian or Alaska Native'
p368
g3
(g7
S'\xa1\x01\x00\x00\x00\x00\x00\x00'
p369
tp370
Rp371
sS'2010_26.0_White'
p372
g3
(g7
S'\xa0\x9f\x00\x00\x00\x00\x00\x00'
p373
tp374
Rp375
sS'2014_22.0101_American Indian or Alaska Native'
p376
g3
(g7
S'\x95\x03\x00\x00\x00\x00\x00\x00'
p377
tp378
Rp379
sS'2012_27.0_Asian'
p380
g3
(g7
S'\xc5\x06\x00\x00\x00\x00\x00\x00'
p381
tp382
Rp383
sS'2006_52.0_Black or African American'
p384
I40756
sS'2008_13.0_Black or African American'
p385
I63879
sS'2006_51.0401_Hispanic'
p386
I1084
sS'2012_51.0401_Asian'
p387
g3
(g7
S'\xfc\x10\x00\x00\x00\x00\x00\x00'
p388
tp389
Rp390
sS'2008_22.0101_American Indian or Alaska Native'
p391
I0
sS'2000_22.0101_Black or African American'
p392
I7578
sS'2004_51.1201_Hispanic'
p393
I4098
sS'2002_22.0101_White'
p394
I90428
sS'2006_14.0_Asian'
p395
I8880
sS'2014_52.0_Asian'
p396
g3
(g7
S'5j\x00\x00\x00\x00\x00\x00'
p397
tp398
Rp399
sS'2002_26.0_Hispanic'
p400
I2598
sS'2008_40.0_Asian'
p401
I1933
sS'2012_27.0_Black or African American'
p402
g3
(g7
S'\x01\x03\x00\x00\x00\x00\x00\x00'
p403
tp404
Rp405
sS'2002_26.0_Native Hawaiian or Other Pacific Islander'
p406
I1822
sS'2000_26.0_Asian'
p407
I3138
sS'2006_51.0401_Black or African American'
p408
I1036
sS'2014_51.1201_Hispanic'
p409
g3
(g7
S'g\x19\x00\x00\x00\x00\x00\x00'
p410
tp411
Rp412
sS'2014_27.0_Native Hawaiian or Other Pacific Islander'
p413
g3
(g7
S'\x11\x00\x00\x00\x00\x00\x00\x00'
p414
tp415
Rp416
sS'2006_22.0101_White'
p417
I93299
sS'2006_52.0_Hispanic'
p418
I20556
sS'2006_51.1201_White'
p419
I44624
sS'2002_14.0_Black or African American'
p420
I2993
sS'2000_27.0_Black or African American'
p421
I589
sS'2008_40.0_Native Hawaiian or Other Pacific Islander'
p422
I1146
sS'2002_51.0401_Hispanic'
p423
I1112
sS'2008_13.0_Hispanic'
p424
I38232
sS'2014_26.0_Black or African American'
p425
g3
(g7
S'\xb9\x10\x00\x00\x00\x00\x00\x00'
p426
tp427
Rp428
sS'2006_51.0401_Native Hawaiian or Other Pacific Islander'
p429
I1587
sS'2012_22.0101_Black or African American'
p430
g3
(g7
S'\xcf(\x00\x00\x00\x00\x00\x00'
p431
tp432
Rp433
sS'2002_13.0_White'
p434
I326237
sS'2002_51.0401_Native Hawaiian or Other Pacific Islander'
p435
I2046
sS'2004_52.0_American Indian or Alaska Native'
p436
I1802
sS'2000_51.1201_Asian'
p437
I10704
sS'2012_26.0_Black or African American'
p438
g3
(g7
S'u\x0f\x00\x00\x00\x00\x00\x00'
p439
tp440
Rp441
sS'2012_40.0_Asian'
p442
g3
(g7
S'\x01\t\x00\x00\x00\x00\x00\x00'
p443
tp444
Rp445
sS'2006_40.0_White'
p446
I22644
sS'2012_13.0_Native Hawaiian or Other Pacific Islander'
p447
g3
(g7
S'y\x04\x00\x00\x00\x00\x00\x00'
p448
tp449
Rp450
sS'2008_27.0_American Indian or Alaska Native'
p451
I43
sS'2008_51.0401_American Indian or Alaska Native'
p452
I0
sS'2008_26.0_Black or African American'
p453
I3256
sS'2014_13.0_American Indian or Alaska Native'
p454
g3
(g7
S'c\n\x00\x00\x00\x00\x00\x00'
p455
tp456
Rp457
sS'2010_52.0_Asian'
p458
g3
(g7
S'\xads\x00\x00\x00\x00\x00\x00'
p459
tp460
Rp461
sS'2000_22.0101_Asian'
p462
I6744
sS'2004_26.0_Hispanic'
p463
I4715
sS'2000_40.0_Black or African American'
p464
I956
sS'2014_27.0_White'
p465
g3
(g7
S"\xed'\x00\x00\x00\x00\x00\x00"
p466
tp467
Rp468
sS'2014_26.0_Hispanic'
p469
g3
(g7
S'\xc8\x17\x00\x00\x00\x00\x00\x00'
p470
tp471
Rp472
sS'2000_40.0_White'
p473
I18789
sS'2006_51.1201_Hispanic'
p474
I4306
sS'2008_14.0_Hispanic'
p475
I5302
sS'2002_22.0101_American Indian or Alaska Native'
p476
I935
sS'2000_13.0_White'
p477
I247050
sS'2002_51.0401_Asian'
p478
I4005
sS'2010_14.0_Black or African American'
p479
g3
(g7
S'\xd3\x0f\x00\x00\x00\x00\x00\x00'
p480
tp481
Rp482
sS'2014_14.0_Black or African American'
p483
g3
(g7
S'\x01\x10\x00\x00\x00\x00\x00\x00'
p484
tp485
Rp486
sS'2008_51.0401_Hispanic'
p487
I0
sS'2010_51.0401_American Indian or Alaska Native'
p488
g3
(g7
S'k\x00\x00\x00\x00\x00\x00\x00'
p489
tp490
Rp491
sS'2008_14.0_Black or African American'
p492
I3376
sS'2014_14.0_Asian'
p493
g3
(g7
S'\xca(\x00\x00\x00\x00\x00\x00'
p494
tp495
Rp496
sS'2000_27.0_Native Hawaiian or Other Pacific Islander'
p497
I432
sS'2012_51.1201_Asian'
p498
g3
(g7
S'\x9b<\x00\x00\x00\x00\x00\x00'
p499
tp500
Rp501
sS'2008_27.0_Black or African American'
p502
I636
sS'2006_27.0_American Indian or Alaska Native'
p503
I59
sS'2012_27.0_White'
p504
g3
(g7
S'z)\x00\x00\x00\x00\x00\x00'
p505
tp506
Rp507
sS'2010_52.0_Hispanic'
p508
g3
(g7
S'n}\x00\x00\x00\x00\x00\x00'
p509
tp510
Rp511
sS'2000_14.0_Black or African American'
p512
I2712
sS'2014_40.0_Black or African American'
p513
g3
(g7
S'\x9d\x04\x00\x00\x00\x00\x00\x00'
p514
tp515
Rp516
sS'2004_52.0_White'
p517
I187818
sS'2012_13.0_Black or African American'
p518
g3
(g7
S'\x9d\x0f\x01\x00\x00\x00\x00\x00'
p519
tp520
Rp521
sS'2008_40.0_Hispanic'
p522
I1450
sS'2002_14.0_White'
p523
I39549
sS'2002_51.0401_American Indian or Alaska Native'
p524
I109
sS'2008_22.0101_Native Hawaiian or Other Pacific Islander'
p525
I0
sS'2012_13.0_American Indian or Alaska Native'
p526
g3
(g7
S'\x0e\x0b\x00\x00\x00\x00\x00\x00'
p527
tp528
Rp529
sS'2004_51.0401_Hispanic'
p530
I955
sS'2000_51.1201_White'
p531
I37674
sS'2014_14.0_Native Hawaiian or Other Pacific Islander'
p532
g3
(g7
S'|\x00\x00\x00\x00\x00\x00\x00'
p533
tp534
Rp535
sS'2004_22.0101_Asian'
p536
I10443
sS'2004_14.0_American Indian or Alaska Native'
p537
I270
sS'2008_52.0_White'
p538
I191709
sS'2012_52.0_White'
p539
g3
(g7
S'.G\x03\x00\x00\x00\x00\x00'
p540
tp541
Rp542
sS'2014_13.0_Asian'
p543
g3
(g7
S'Q.\x00\x00\x00\x00\x00\x00'
p544
tp545
Rp546
sS'2004_22.0101_Native Hawaiian or Other Pacific Islander'
p547
I5168
sS'2006_22.0101_Asian'
p548
I10946
sS'2012_14.0_Hispanic'
p549
g3
(g7
S'\x7f\x19\x00\x00\x00\x00\x00\x00'
p550
tp551
Rp552
sS'2006_26.0_American Indian or Alaska Native'
p553
I339
sS'1998_51.0401_Native Hawaiian or Other Pacific Islander'
p554
I503
sS'2002_52.0_American Indian or Alaska Native'
p555
I1427
sS'2002_27.0_White'
p556
I7759
sS'2006_26.0_Black or African American'
p557
I3525
sS'2008_52.0_Native Hawaiian or Other Pacific Islander'
p558
I17402
sS'2014_51.0401_Native Hawaiian or Other Pacific Islander'
p559
g3
(g7
S' \x00\x00\x00\x00\x00\x00\x00'
p560
tp561
Rp562
sS'1998_13.0_Native Hawaiian or Other Pacific Islander'
p563
I804
sS'2002_51.1201_Native Hawaiian or Other Pacific Islander'
p564
I6487
sS'2010_26.0_American Indian or Alaska Native'
p565
g3
(g7
S'J\x01\x00\x00\x00\x00\x00\x00'
p566
tp567
Rp568
sS'2002_13.0_American Indian or Alaska Native'
p569
I2744
sS'2014_40.0_White'
p570
g3
(g7
S'\x96a\x00\x00\x00\x00\x00\x00'
p571
tp572
Rp573
sS'2006_26.0_Hispanic'
p574
I3277
sS'2014_52.0_Black or African American'
p575
g3
(g7
S'z\x1f\x01\x00\x00\x00\x00\x00'
p576
tp577
Rp578
sS'1998_51.0401_Black or African American'
p579
I158
sS'2004_40.0_American Indian or Alaska Native'
p580
I125
sS'1998_26.0_Native Hawaiian or Other Pacific Islander'
p581
I356
sS'2002_13.0_Black or African American'
p582
I48387
sS'2008_40.0_American Indian or Alaska Native'
p583
I147
sS'2006_27.0_Black or African American'
p584
I698
sS'2000_40.0_Native Hawaiian or Other Pacific Islander'
p585
I1056
sS'2002_40.0_American Indian or Alaska Native'
p586
I124
sS'2002_40.0_Asian'
p587
I1731
sS'2002_14.0_Asian'
p588
I9111
sS'2006_13.0_Black or African American'
p589
I59134
sS'2010_40.0_Hispanic'
p590
g3
(g7
S'{\x07\x00\x00\x00\x00\x00\x00'
p591
tp592
Rp593
sS'2008_27.0_White'
p594
I8635
sS'2008_51.1201_American Indian or Alaska Native'
p595
I0
sS'2002_40.0_Hispanic'
p596
I1252
sS'1998_52.0_American Indian or Alaska Native'
p597
I232
sS'1998_13.0_Black or African American'
p598
I6968
sS'2004_22.0101_Hispanic'
p599
I10644
sS'2010_27.0_Asian'
p600
g3
(g7
S'F\x06\x00\x00\x00\x00\x00\x00'
p601
tp602
Rp603
sS'2006_40.0_Asian'
p604
I1851
sS'2010_22.0101_Asian'
p605
g3
(g7
S"\xec'\x00\x00\x00\x00\x00\x00"
p606
tp607
Rp608
sS'2000_40.0_American Indian or Alaska Native'
p609
I124
sS'2012_13.0_Asian'
p610
g3
(g7
S').\x00\x00\x00\x00\x00\x00'
p611
tp612
Rp613
sS'2006_51.1201_Black or African American'
p614
I5051
sS'2010_51.0401_Hispanic'
p615
g3
(g7
S'\xf1\x04\x00\x00\x00\x00\x00\x00'
p616
tp617
Rp618
sS'2004_40.0_Hispanic'
p619
I2036
sS'2004_13.0_White'
p620
I348899
sS'2004_14.0_Black or African American'
p621
I3405
sS'2004_27.0_Hispanic'
p622
I1210
sS'1998_40.0_Native Hawaiian or Other Pacific Islander'
p623
I234
sS'2000_51.0401_Hispanic'
p624
I742
sS'2000_14.0_Hispanic'
p625
I3145
sS'2006_22.0101_Native Hawaiian or Other Pacific Islander'
p626
I5568
sS'2000_22.0101_White'
p627
I73511
sS'2004_26.0_Black or African American'
p628
I3157
sS'1998_51.0401_Hispanic'
p629
I195
sS'2012_40.0_White'
p630
g3
(g7
S'&c\x00\x00\x00\x00\x00\x00'
p631
tp632
Rp633
sS'2002_22.0101_Native Hawaiian or Other Pacific Islander'
p634
I3788
sS'1998_27.0_White'
p635
I1651
sS'2014_51.0401_Hispanic'
p636
g3
(g7
S'\xd9\x06\x00\x00\x00\x00\x00\x00'
p637
tp638
Rp639
sS'2010_13.0_Native Hawaiian or Other Pacific Islander'
p640
g3
(g7
S'\xd4\x05\x00\x00\x00\x00\x00\x00'
p641
tp642
Rp643
sS'2014_51.0401_Asian'
p644
g3
(g7
S'~\x13\x00\x00\x00\x00\x00\x00'
p645
tp646
Rp647
sS'2008_13.0_Asian'
p648
I12688
sS'2000_40.0_Hispanic'
p649
I991
sS'2010_22.0101_American Indian or Alaska Native'
p650
g3
(g7
S'\x0f\x04\x00\x00\x00\x00\x00\x00'
p651
tp652
Rp653
sS'2010_51.1201_Black or African American'
p654
g3
(g7
S'\xaf\x12\x00\x00\x00\x00\x00\x00'
p655
tp656
Rp657
sS'2006_13.0_Asian'
p658
I12685
sS'2002_52.0_Native Hawaiian or Other Pacific Islander'
p659
I11075
sS'2004_13.0_Native Hawaiian or Other Pacific Islander'
p660
I5647
sS'1998_51.0401_American Indian or Alaska Native'
p661
I21
sS'2004_51.1201_Asian'
p662
I12807
sS'2014_40.0_American Indian or Alaska Native'
p663
g3
(g7
S'v\x00\x00\x00\x00\x00\x00\x00'
p664
tp665
Rp666
sS'1998_40.0_Black or African American'
p667
I205
sS'1998_13.0_White'
p668
I53055
sS'2004_40.0_Native Hawaiian or Other Pacific Islander'
p669
I1091
sS'2008_13.0_White'
p670
I322345
sS'1998_51.0401_White'
p671
I2276
sS'2010_26.0_Asian'
p672
g3
(g7
S'\xcd\x1a\x00\x00\x00\x00\x00\x00'
p673
tp674
Rp675
sS'2008_14.0_White'
p676
I40184
sS'2002_22.0101_Hispanic'
p677
I9168
sS'1998_26.0_Asian'
p678
I698
sS'2012_26.0_Asian'
p679
g3
(g7
S'd\x1c\x00\x00\x00\x00\x00\x00'
p680
tp681
Rp682
sS'2008_26.0_Hispanic'
p683
I3139
sS'2002_51.0401_White'
p684
I12461
sS'2002_13.0_Asian'
p685
I10707
sS'2000_27.0_Asian'
p686
I750
sS'2004_26.0_White'
p687
I38658
sS'2004_51.1201_Native Hawaiian or Other Pacific Islander'
p688
I6716
sS'1998_14.0_Hispanic'
p689
I569
sS'1998_52.0_Asian'
p690
I3708
sS'2008_13.0_American Indian or Alaska Native'
p691
I3138
sS'2004_51.0401_White'
p692
I10991
sS'2000_14.0_Native Hawaiian or Other Pacific Islander'
p693
I4980
sS'2014_40.0_Native Hawaiian or Other Pacific Islander'
p694
g3
(g7
S'#\x00\x00\x00\x00\x00\x00\x00'
p695
tp696
Rp697
sS'2000_13.0_American Indian or Alaska Native'
p698
I2290
sS'1998_14.0_Native Hawaiian or Other Pacific Islander'
p699
I1286
sS'2006_51.0401_American Indian or Alaska Native'
p700
I120
sS'2010_40.0_Asian'
p701
g3
(g7
S'\x9c\x08\x00\x00\x00\x00\x00\x00'
p702
tp703
Rp704
sS'2004_40.0_White'
p705
I23350
sS'2000_13.0_Black or African American'
p706
I36111
sS'2014_27.0_Hispanic'
p707
g3
(g7
S'\xc2\x04\x00\x00\x00\x00\x00\x00'
p708
tp709
Rp710
sS'2006_27.0_Asian'
p711
I1287
sS'2004_51.0401_American Indian or Alaska Native'
p712
I93
sS'2002_13.0_Hispanic'
p713
I33714
sS'2014_51.0401_Black or African American'
p714
g3
(g7
S'\xbd\x04\x00\x00\x00\x00\x00\x00'
p715
tp716
Rp717
sS'2006_40.0_Native Hawaiian or Other Pacific Islander'
p718
I1115
sS'2002_40.0_White'
p719
I21553
sS'2004_14.0_Native Hawaiian or Other Pacific Islander'
p720
I6826
sS'2010_13.0_Asian'
p721
g3
(g7
S'c3\x00\x00\x00\x00\x00\x00'
p722
tp723
Rp724
sS'2002_27.0_American Indian or Alaska Native'
p725
I23
sS'2014_27.0_Asian'
p726
g3
(g7
S'\x1f\x07\x00\x00\x00\x00\x00\x00'
p727
tp728
Rp729
sS'2008_13.0_Native Hawaiian or Other Pacific Islander'
p730
I5356
sS'2008_26.0_American Indian or Alaska Native'
p731
I312
sS'2010_13.0_White'
p732
g3
(g7
S'\xb0`\x05\x00\x00\x00\x00\x00'
p733
tp734
Rp735
sS'2008_27.0_Asian'
p736
I1316
sS'2004_27.0_Native Hawaiian or Other Pacific Islander'
p737
I709
sS'2014_51.0401_White'
p738
g3
(g7
S'u0\x00\x00\x00\x00\x00\x00'
p739
tp740
Rp741
sS'2006_52.0_Native Hawaiian or Other Pacific Islander'
p742
I14833
sS'2012_51.0401_Black or African American'
p743
g3
(g7
S"'\x04\x00\x00\x00\x00\x00\x00"
p744
tp745
Rp746
sS'1998_22.0101_Asian'
p747
I2494
sS'1998_40.0_Asian'
p748
I354
sS'2006_51.1201_Native Hawaiian or Other Pacific Islander'
p749
I6962
sS'1998_27.0_Native Hawaiian or Other Pacific Islander'
p750
I103
sS'2002_40.0_Black or African American'
p751
I1026
sS'2012_51.1201_Native Hawaiian or Other Pacific Islander'
p752
g3
(g7
S'z\x00\x00\x00\x00\x00\x00\x00'
p753
tp754
Rp755
sS'2000_22.0101_American Indian or Alaska Native'
p756
I776
sS'2000_26.0_American Indian or Alaska Native'
p757
I176
sS'2010_40.0_Native Hawaiian or Other Pacific Islander'
p758
g3
(g7
S'.\x00\x00\x00\x00\x00\x00\x00'
p759
tp760
Rp761
sS'2010_51.0401_Native Hawaiian or Other Pacific Islander'
p762
g3
(g7
S'3\x00\x00\x00\x00\x00\x00\x00'
p763
tp764
Rp765
sS'2000_13.0_Hispanic'
p766
I24848
sS'2012_26.0_Native Hawaiian or Other Pacific Islander'
p767
g3
(g7
S'\x90\x00\x00\x00\x00\x00\x00\x00'
p768
tp769
Rp770
sS'2014_27.0_Black or African American'
p771
g3
(g7
S'\x04\x03\x00\x00\x00\x00\x00\x00'
p772
tp773
Rp774
sS'2006_14.0_Native Hawaiian or Other Pacific Islander'
p775
I6533
sS'2014_22.0101_Hispanic'
p776
g3
(g7
S'\xbb5\x00\x00\x00\x00\x00\x00'
p777
tp778
Rp779
sS'2010_51.0401_Asian'
p780
g3
(g7
S'*\x0e\x00\x00\x00\x00\x00\x00'
p781
tp782
Rp783
sS'2002_22.0101_Black or African American'
p784
I9622
sS'2006_40.0_American Indian or Alaska Native'
p785
I197
sS'2002_51.1201_American Indian or Alaska Native'
p786
I437
sS'2006_27.0_White'
p787
I8820
sS'2008_51.1201_Black or African American'
p788
I0
sS'2008_51.0401_Asian'
p789
I0
sS'2006_14.0_Hispanic'
p790
I4264
sS'2012_14.0_Black or African American'
p791
g3
(g7
S'\xb0\x0f\x00\x00\x00\x00\x00\x00'
p792
tp793
Rp794
sS'2002_52.0_Hispanic'
p795
I16961
sS'2010_52.0_White'
p796
g3
(g7
S'0M\x03\x00\x00\x00\x00\x00'
p797
tp798
Rp799
sS'2000_51.0401_Black or African American'
p800
I521
sS'2006_13.0_White'
p801
I338354
sS'2000_22.0101_Native Hawaiian or Other Pacific Islander'
p802
I3280
sS'2012_13.0_Hispanic'
p803
g3
(g7
S'\x0f\xac\x00\x00\x00\x00\x00\x00'
p804
tp805
Rp806
sS'1998_26.0_White'
p807
I5862
sS'2004_26.0_Asian'
p808
I5302
sS'2000_26.0_Hispanic'
p809
I2941
sS'2006_13.0_American Indian or Alaska Native'
p810
I3313
sS'2000_40.0_Asian'
p811
I1627
sS'2008_51.0401_White'
p812
I0
sS'2012_51.0401_Hispanic'
p813
g3
(g7
S'\xb8\x05\x00\x00\x00\x00\x00\x00'
p814
tp815
Rp816
sS'1998_14.0_Asian'
p817
I1712
sS'2002_27.0_Asian'
p818
I905
sS'2004_51.1201_Black or African American'
p819
I4984
sS'1998_40.0_Hispanic'
p820
I173
sS'2014_14.0_American Indian or Alaska Native'
p821
g3
(g7
S'\xe4\x00\x00\x00\x00\x00\x00\x00'
p822
tp823
Rp824
sS'2004_26.0_American Indian or Alaska Native'
p825
I270
sS'2008_52.0_Hispanic'
p826
I25492
sS'2014_13.0_Native Hawaiian or Other Pacific Islander'
p827
g3
(g7
S'\x82\x04\x00\x00\x00\x00\x00\x00'
p828
tp829
Rp830
sS'2006_40.0_Black or African American'
p831
I1167
sS'2008_14.0_American Indian or Alaska Native'
p832
I292
sS'2010_26.0_Black or African American'
p833
g3
(g7
S'\x08\x10\x00\x00\x00\x00\x00\x00'
p834
tp835
Rp836
sS'2000_52.0_American Indian or Alaska Native'
p837
I953
sS'2000_51.1201_Hispanic'
p838
I3623
sS'2012_14.0_Native Hawaiian or Other Pacific Islander'
p839
g3
(g7
S'y\x00\x00\x00\x00\x00\x00\x00'
p840
tp841
Rp842
sS'2004_52.0_Black or African American'
p843
I40454
sS'2008_26.0_White'
p844
I34219
sS'2008_40.0_Black or African American'
p845
I1035
sS'2000_52.0_Native Hawaiian or Other Pacific Islander'
p846
I8833
sS'1998_51.1201_Asian'
p847
I2391
sS'2010_51.1201_Asian'
p848
g3
(g7
S' 9\x00\x00\x00\x00\x00\x00'
p849
tp850
Rp851
sS'2014_14.0_Hispanic'
p852
g3
(g7
S'\xb3\x1b\x00\x00\x00\x00\x00\x00'
p853
tp854
Rp855
sS'2000_22.0101_Hispanic'
p856
I8030
sS'1998_51.1201_Black or African American'
p857
I1032
sS'2006_51.1201_Asian'
p858
I13673
sS'2000_51.0401_Asian'
p859
I2805
sS'1998_52.0_White'
p860
I37461
sS'2006_22.0101_American Indian or Alaska Native'
p861
I1089
sS'2012_40.0_Hispanic'
p862
g3
(g7
S'\xcf\x08\x00\x00\x00\x00\x00\x00'
p863
tp864
Rp865
sS'2012_51.0401_White'
p866
g3
(g7
S'\xb9-\x00\x00\x00\x00\x00\x00'
p867
tp868
Rp869
sS'1998_51.0401_Asian'
p870
I857
sS'2010_51.1201_Native Hawaiian or Other Pacific Islander'
p871
g3
(g7
S'\x9f\x00\x00\x00\x00\x00\x00\x00'
p872
tp873
Rp874
sS'2002_52.0_Asian'
p875
I19892
sS'2000_51.1201_American Indian or Alaska Native'
p876
I451
sS'2008_22.0101_Asian'
p877
I0
sS'1998_14.0_Black or African American'
p878
I641
sS'2004_22.0101_Black or African American'
p879
I9515
sS'2002_14.0_American Indian or Alaska Native'
p880
I238
sS'2004_26.0_Native Hawaiian or Other Pacific Islander'
p881
I2450
sS'1998_51.1201_White'
p882
I8575
sS'2002_52.0_White'
p883
I179838
sS'2008_27.0_Hispanic'
p884
I715
sS'2012_27.0_Native Hawaiian or Other Pacific Islander'
p885
g3
(g7
S'\x14\x00\x00\x00\x00\x00\x00\x00'
p886
tp887
Rp888
sS'1998_26.0_American Indian or Alaska Native'
p889
I41
sS'2002_51.1201_White'
p890
I40595
sS'2012_51.1201_Hispanic'
p891
g3
(g7
S't\x17\x00\x00\x00\x00\x00\x00'
p892
tp893
Rp894
sS'2000_26.0_White'
p895
I27436
sS'1998_51.1201_American Indian or Alaska Native'
p896
I102
sS'2010_26.0_Hispanic'
p897
g3
(g7
S'\x94\x11\x00\x00\x00\x00\x00\x00'
p898
tp899
Rp900
sS'2014_26.0_Native Hawaiian or Other Pacific Islander'
p901
g3
(g7
S'x\x00\x00\x00\x00\x00\x00\x00'
p902
tp903
Rp904
sS'2000_14.0_White'
p905
I34941
sS'2008_22.0101_Black or African American'
p906
I0
sS'2008_26.0_Asian'
p907
I5497
sS'1998_22.0101_American Indian or Alaska Native'
p908
I312
sS'2002_40.0_Native Hawaiian or Other Pacific Islander'
p909
I1003
sS'1998_14.0_White'
p910
I8791
sS'2012_52.0_Black or African American'
p911
g3
(g7
S'u*\x01\x00\x00\x00\x00\x00'
p912
tp913
Rp914
sS'2006_13.0_Hispanic'
p915
I40380
sS'2000_52.0_Hispanic'
p916
I12998
sS'2008_51.0401_Black or African American'
p917
I0
sS'2008_51.1201_Asian'
p918
I0
sS'2008_51.1201_Native Hawaiian or Other Pacific Islander'
p919
I0
sS'2008_26.0_Native Hawaiian or Other Pacific Islander'
p920
I2502
sS'2004_27.0_Black or African American'
p921
I825
sS'2000_14.0_American Indian or Alaska Native'
p922
I215
sS'2012_22.0101_White'
p923
g3
(g7
S'\x85Z\x01\x00\x00\x00\x00\x00'
p924
tp925
Rp926
sS'2014_52.0_American Indian or Alaska Native'
p927
g3
(g7
S'\xde\x07\x00\x00\x00\x00\x00\x00'
p928
tp929
Rp930
sS'2012_52.0_American Indian or Alaska Native'
p931
g3
(g7
S'z\x08\x00\x00\x00\x00\x00\x00'
p932
tp933
Rp934
sS'2004_51.1201_White'
p935
I42488
sS'2000_52.0_Asian'
p936
I14501
sS'2004_14.0_Asian'
p937
I9369
sS'2012_51.0401_American Indian or Alaska Native'
p938
g3
(g7
S'N\x00\x00\x00\x00\x00\x00\x00'
p939
tp940
Rp941
sS'2004_13.0_American Indian or Alaska Native'
p942
I3239
sS'2002_13.0_Native Hawaiian or Other Pacific Islander'
p943
I4443
sS'2000_52.0_White'
p944
I143644
sS'2006_13.0_Native Hawaiian or Other Pacific Islander'
p945
I5453
sS'2002_26.0_Asian'
p946
I4004
sS'2012_26.0_American Indian or Alaska Native'
p947
g3
(g7
S'\x08\x01\x00\x00\x00\x00\x00\x00'
p948
tp949
Rp950
sS'1998_27.0_American Indian or Alaska Native'
p951
I12
sS'2010_22.0101_Black or African American'
p952
g3
(g7
S'\x1f)\x00\x00\x00\x00\x00\x00'
p953
tp954
Rp955
sS'1998_26.0_Hispanic'
p956
I328
sS'2000_27.0_American Indian or Alaska Native'
p957
I27
sS'2014_27.0_American Indian or Alaska Native'
p958
g3
(g7
S'#\x00\x00\x00\x00\x00\x00\x00'
p959
tp960
Rp961
sS'2006_27.0_Hispanic'
p962
I744
sS'2008_14.0_Asian'
p963
I9800
sS'2000_26.0_Black or African American'
p964
I1772
sS'2006_22.0101_Hispanic'
p965
I10830
sS'1998_52.0_Hispanic'
p966
I2552
sS'2002_22.0101_Asian'
p967
I8494
sS'2000_51.0401_American Indian or Alaska Native'
p968
I102
sS'2010_14.0_Native Hawaiian or Other Pacific Islander'
p969
g3
(g7
S'\x96\x00\x00\x00\x00\x00\x00\x00'
p970
tp971
Rp972
sS'2004_51.1201_American Indian or Alaska Native'
p973
I520
sS'2002_51.0401_Black or African American'
p974
I1174
sS'2012_13.0_White'
p975
g3
(g7
S'\xac\x9f\x04\x00\x00\x00\x00\x00'
p976
tp977
Rp978
sS'1998_40.0_White'
p979
I3776
s.