(dp0
S'2008_22.0101_White'
p1
I28546
sS'2010_13.0_Black or African American'
p2
I762
sS'2013_27.0_Hispanic'
p3
cnumpy.core.multiarray
scalar
p4
(cnumpy
dtype
p5
(S'i8'
p6
I0
I1
tp7
Rp8
(I3
S'<'
p9
NNNI-1
I-1
I0
tp10
bS'"\x00\x00\x00\x00\x00\x00\x00'
p11
tp12
Rp13
sS'1999_26.0_Hispanic'
p14
I127
sS'2010_52.0_Hispanic'
p15
I46
sS'2004_27.0_American Indian or Alaska Native'
p16
I0
sS'2007_51.0401_Asian'
p17
I873
sS'2009_26.0_Black or African American'
p18
I213
sS'2014_26.0_Asian'
p19
g4
(g8
S'\x90\x02\x00\x00\x00\x00\x00\x00'
p20
tp21
Rp22
sS'2012_52.0_Native Hawaiian or Other Pacific Islander'
p23
g4
(g8
S'\x03\x00\x00\x00\x00\x00\x00\x00'
p24
tp25
Rp26
sS'2010_27.0_American Indian or Alaska Native'
p27
I1
sS'2010_14.0_Asian'
p28
I305
sS'2000_22.0101_Black or African American'
p29
I2668
sS'2012_27.0_Black or African American'
p30
g4
(g8
S'\x15\x00\x00\x00\x00\x00\x00\x00'
p31
tp32
Rp33
sS'2003_52.0_Asian'
p34
I68
sS'2012_51.1201_American Indian or Alaska Native'
p35
g4
(g8
S'i\x00\x00\x00\x00\x00\x00\x00'
p36
tp37
Rp38
sS'2001_40.0_White'
p39
I1915
sS'2010_26.0_Native Hawaiian or Other Pacific Islander'
p40
I433
sS'2014_51.1201_Native Hawaiian or Other Pacific Islander'
p41
g4
(g8
S'\x1d\x00\x00\x00\x00\x00\x00\x00'
p42
tp43
Rp44
sS'2010_51.0401_White'
p45
I1453
sS'2013_40.0_Native Hawaiian or Other Pacific Islander'
p46
g4
(g8
S'\x00\x00\x00\x00\x00\x00\x00\x00'
p47
tp48
Rp49
sS'2009_22.0101_Hispanic'
p50
I2746
sS'2001_52.0_American Indian or Alaska Native'
p51
I3
sS'2003_14.0_Black or African American'
p52
I92
sS'2003_27.0_Native Hawaiian or Other Pacific Islander'
p53
I42
sS'2006_26.0_Native Hawaiian or Other Pacific Islander'
p54
I465
sS'2010_52.0_Native Hawaiian or Other Pacific Islander'
p55
I63
sS'2010_27.0_Black or African American'
p56
I13
sS'2012_14.0_American Indian or Alaska Native'
p57
g4
(g8
S'\n\x00\x00\x00\x00\x00\x00\x00'
p58
tp59
Rp60
sS'2011_26.0_American Indian or Alaska Native'
p61
g4
(g8
S'\x1b\x00\x00\x00\x00\x00\x00\x00'
p62
tp63
Rp64
sS'2011_27.0_Asian'
p65
g4
(g8
S'Y\x00\x00\x00\x00\x00\x00\x00'
p66
tp67
Rp68
sS'2014_40.0_Hispanic'
p69
g4
(g8
S'\xa9\x00\x00\x00\x00\x00\x00\x00'
p70
tp71
Rp72
sS'2001_52.0_Black or African American'
p73
I74
sS'2005_13.0_American Indian or Alaska Native'
p74
I63
sS'2010_51.1201_White'
p75
I4773
sS'2011_51.0401_Native Hawaiian or Other Pacific Islander'
p76
g4
(g8
S'\x11\x00\x00\x00\x00\x00\x00\x00'
p77
tp78
Rp79
sS'2013_13.0_American Indian or Alaska Native'
p80
g4
(g8
S'L\x00\x00\x00\x00\x00\x00\x00'
p81
tp82
Rp83
sS'2014_40.0_Native Hawaiian or Other Pacific Islander'
p84
g4
(g8
S'\x03\x00\x00\x00\x00\x00\x00\x00'
p85
tp86
Rp87
sS'2013_14.0_Black or African American'
p88
g4
(g8
S'\xaf\x00\x00\x00\x00\x00\x00\x00'
p89
tp90
Rp91
sS'2004_40.0_Asian'
p92
I178
sS'2013_52.0_Hispanic'
p93
g4
(g8
S'\x8c\x00\x00\x00\x00\x00\x00\x00'
p94
tp95
Rp96
sS'2014_22.0101_Black or African American'
p97
g4
(g8
S'\xf2\x0b\x00\x00\x00\x00\x00\x00'
p98
tp99
Rp100
sS'2002_51.1201_Black or African American'
p101
I1071
sS'2014_51.0401_American Indian or Alaska Native'
p102
g4
(g8
S'\x10\x00\x00\x00\x00\x00\x00\x00'
p103
tp104
Rp105
sS'2004_14.0_Hispanic'
p106
I100
sS'2005_26.0_White'
p107
I3001
sS'2012_52.0_Hispanic'
p108
g4
(g8
S'e\x00\x00\x00\x00\x00\x00\x00'
p109
tp110
Rp111
sS'2011_14.0_Hispanic'
p112
g4
(g8
S'\xb7\x00\x00\x00\x00\x00\x00\x00'
p113
tp114
Rp115
sS'2012_51.0401_Native Hawaiian or Other Pacific Islander'
p116
g4
(g8
S'\n\x00\x00\x00\x00\x00\x00\x00'
p117
tp118
Rp119
sS'2001_22.0101_Native Hawaiian or Other Pacific Islander'
p120
I2459
sS'2010_27.0_Hispanic'
p121
I26
sS'2007_26.0_Native Hawaiian or Other Pacific Islander'
p122
I535
sS'2004_27.0_Asian'
p123
I46
sS'2004_22.0101_White'
p124
I29082
sS'2001_51.1201_White'
p125
I10142
sS'2012_26.0_White'
p126
g4
(g8
S'\x84\x0f\x00\x00\x00\x00\x00\x00'
p127
tp128
Rp129
sS'2014_51.1201_White'
p130
g4
(g8
S'\xa4&\x00\x00\x00\x00\x00\x00'
p131
tp132
Rp133
sS'1999_22.0101_Black or African American'
p134
I2949
sS'2008_51.1201_White'
p135
I9815
sS'2011_51.0401_White'
p136
g4
(g8
S'J\x0b\x00\x00\x00\x00\x00\x00'
p137
tp138
Rp139
sS'2010_13.0_American Indian or Alaska Native'
p140
I18
sS'1999_22.0101_Hispanic'
p141
I2383
sS'2006_14.0_Black or African American'
p142
I107
sS'2007_14.0_Native Hawaiian or Other Pacific Islander'
p143
I506
sS'2014_13.0_Hispanic'
p144
g4
(g8
S'H\x03\x00\x00\x00\x00\x00\x00'
p145
tp146
Rp147
sS'2001_51.0401_White'
p148
I2651
sS'1999_27.0_Asian'
p149
I58
sS'2005_26.0_Asian'
p150
I487
sS'2012_52.0_Asian'
p151
g4
(g8
S'\x92\x00\x00\x00\x00\x00\x00\x00'
p152
tp153
Rp154
sS'2010_52.0_Black or African American'
p155
I125
sS'2012_14.0_Native Hawaiian or Other Pacific Islander'
p156
g4
(g8
S'\x02\x00\x00\x00\x00\x00\x00\x00'
p157
tp158
Rp159
sS'2000_26.0_Native Hawaiian or Other Pacific Islander'
p160
I419
sS'2001_51.1201_Black or African American'
p161
I1063
sS'2007_22.0101_American Indian or Alaska Native'
p162
I335
sS'2000_51.1201_Native Hawaiian or Other Pacific Islander'
p163
I2593
sS'2002_27.0_Native Hawaiian or Other Pacific Islander'
p164
I25
sS'2004_51.0401_Native Hawaiian or Other Pacific Islander'
p165
I870
sS'2015_26.0_Asian'
p166
g4
(g8
S'\xb8\x02\x00\x00\x00\x00\x00\x00'
p167
tp168
Rp169
sS'2011_51.0401_American Indian or Alaska Native'
p170
g4
(g8
S'\x17\x00\x00\x00\x00\x00\x00\x00'
p171
tp172
Rp173
sS'2009_14.0_American Indian or Alaska Native'
p174
I16
sS'2014_22.0101_Asian'
p175
g4
(g8
S'\xc7\x0b\x00\x00\x00\x00\x00\x00'
p176
tp177
Rp178
sS'2015_22.0101_American Indian or Alaska Native'
p179
g4
(g8
S'2\x01\x00\x00\x00\x00\x00\x00'
p180
tp181
Rp182
sS'2011_14.0_Asian'
p183
g4
(g8
S'H\x02\x00\x00\x00\x00\x00\x00'
p184
tp185
Rp186
sS'2010_22.0101_White'
p187
I14304
sS'2008_26.0_Asian'
p188
I547
sS'2010_51.1201_Native Hawaiian or Other Pacific Islander'
p189
I1877
sS'1999_22.0101_American Indian or Alaska Native'
p190
I325
sS'2003_14.0_Asian'
p191
I295
sS'2009_14.0_Asian'
p192
I454
sS'2007_40.0_Asian'
p193
I228
sS'2013_51.0401_Black or African American'
p194
g4
(g8
S'\xdd\x00\x00\x00\x00\x00\x00\x00'
p195
tp196
Rp197
sS'2007_26.0_Asian'
p198
I535
sS'2002_14.0_Hispanic'
p199
I88
sS'2001_51.0401_Native Hawaiian or Other Pacific Islander'
p200
I1050
sS'2001_52.0_White'
p201
I603
sS'2015_52.0_Native Hawaiian or Other Pacific Islander'
p202
g4
(g8
S'\x03\x00\x00\x00\x00\x00\x00\x00'
p203
tp204
Rp205
sS'2011_22.0101_Black or African American'
p206
g4
(g8
S'_\x0b\x00\x00\x00\x00\x00\x00'
p207
tp208
Rp209
sS'1999_22.0101_Native Hawaiian or Other Pacific Islander'
p210
I2378
sS'2005_27.0_White'
p211
I399
sS'2002_27.0_Hispanic'
p212
I9
sS'2013_13.0_Asian'
p213
g4
(g8
S'n\x01\x00\x00\x00\x00\x00\x00'
p214
tp215
Rp216
sS'2005_52.0_Asian'
p217
I68
sS'2003_51.0401_American Indian or Alaska Native'
p218
I22
sS'2005_40.0_Hispanic'
p219
I88
sS'2003_51.1201_Native Hawaiian or Other Pacific Islander'
p220
I2879
sS'2009_22.0101_Native Hawaiian or Other Pacific Islander'
p221
I3044
sS'2007_22.0101_Hispanic'
p222
I3131
sS'2013_14.0_American Indian or Alaska Native'
p223
g4
(g8
S'\x06\x00\x00\x00\x00\x00\x00\x00'
p224
tp225
Rp226
sS'2015_51.0401_White'
p227
g4
(g8
S'\xd5\x0b\x00\x00\x00\x00\x00\x00'
p228
tp229
Rp230
sS'2001_13.0_American Indian or Alaska Native'
p231
I46
sS'2000_13.0_Asian'
p232
I171
sS'2010_27.0_Native Hawaiian or Other Pacific Islander'
p233
I57
sS'2014_51.1201_Asian'
p234
g4
(g8
S'\xb8\r\x00\x00\x00\x00\x00\x00'
p235
tp236
Rp237
sS'2013_13.0_Native Hawaiian or Other Pacific Islander'
p238
g4
(g8
S'\x1e\x00\x00\x00\x00\x00\x00\x00'
p239
tp240
Rp241
sS'2006_51.1201_American Indian or Alaska Native'
p242
I138
sS'2001_26.0_American Indian or Alaska Native'
p243
I14
sS'2002_26.0_White'
p244
I2568
sS'2005_52.0_Black or African American'
p245
I108
sS'2013_40.0_Hispanic'
p246
g4
(g8
S'\x9d\x00\x00\x00\x00\x00\x00\x00'
p247
tp248
Rp249
sS'2000_14.0_Asian'
p250
I381
sS'2004_22.0101_American Indian or Alaska Native'
p251
I302
sS'2011_51.1201_White'
p252
g4
(g8
S'\xc3&\x00\x00\x00\x00\x00\x00'
p253
tp254
Rp255
sS'2001_13.0_Native Hawaiian or Other Pacific Islander'
p256
I199
sS'2003_22.0101_American Indian or Alaska Native'
p257
I311
sS'2014_14.0_Native Hawaiian or Other Pacific Islander'
p258
g4
(g8
S'\x08\x00\x00\x00\x00\x00\x00\x00'
p259
tp260
Rp261
sS'2005_40.0_Asian'
p262
I213
sS'1999_40.0_American Indian or Alaska Native'
p263
I13
sS'2009_13.0_Native Hawaiian or Other Pacific Islander'
p264
I246
sS'2012_27.0_Hispanic'
p265
g4
(g8
S"'\x00\x00\x00\x00\x00\x00\x00"
p266
tp267
Rp268
sS'2003_40.0_Hispanic'
p269
I72
sS'2006_51.0401_Asian'
p270
I762
sS'2001_40.0_Hispanic'
p271
I91
sS'2004_14.0_White'
p272
I1631
sS'2006_51.0401_White'
p273
I2704
sS'1999_51.1201_Native Hawaiian or Other Pacific Islander'
p274
I2697
sS'2006_14.0_White'
p275
I1823
sS'2005_26.0_Hispanic'
p276
I204
sS'2009_14.0_Hispanic'
p277
I125
sS'1999_22.0101_Asian'
p278
I2378
sS'2007_13.0_American Indian or Alaska Native'
p279
I56
sS'2012_14.0_Asian'
p280
g4
(g8
S';\x02\x00\x00\x00\x00\x00\x00'
p281
tp282
Rp283
sS'2010_51.1201_Hispanic'
p284
I483
sS'2015_27.0_Asian'
p285
g4
(g8
S'P\x00\x00\x00\x00\x00\x00\x00'
p286
tp287
Rp288
sS'2003_22.0101_Hispanic'
p289
I2779
sS'2013_13.0_Black or African American'
p290
g4
(g8
S'%\x07\x00\x00\x00\x00\x00\x00'
p291
tp292
Rp293
sS'2006_26.0_White'
p294
I3050
sS'2007_52.0_Black or African American'
p295
I155
sS'2010_40.0_Hispanic'
p296
I74
sS'2012_22.0101_Hispanic'
p297
g4
(g8
S'\x08\x0f\x00\x00\x00\x00\x00\x00'
p298
tp299
Rp300
sS'2005_27.0_Asian'
p301
I53
sS'1999_13.0_American Indian or Alaska Native'
p302
I40
sS'2010_13.0_Hispanic'
p303
I289
sS'2009_13.0_White'
p304
I4628
sS'2015_40.0_White'
p305
g4
(g8
S'\x1e\n\x00\x00\x00\x00\x00\x00'
p306
tp307
Rp308
sS'2006_52.0_Asian'
p309
I89
sS'2004_13.0_Black or African American'
p310
I1053
sS'2009_52.0_Black or African American'
p311
I170
sS'2010_27.0_White'
p312
I354
sS'2001_27.0_American Indian or Alaska Native'
p313
I2
sS'2008_27.0_Black or African American'
p314
I22
sS'1999_52.0_American Indian or Alaska Native'
p315
I6
sS'2015_13.0_Hispanic'
p316
g4
(g8
S'~\x03\x00\x00\x00\x00\x00\x00'
p317
tp318
Rp319
sS'1999_27.0_Hispanic'
p320
I23
sS'2000_51.0401_White'
p321
I2692
sS'2004_40.0_Black or African American'
p322
I67
sS'2010_51.0401_Black or African American'
p323
I179
sS'2012_14.0_White'
p324
g4
(g8
S'\xf1\t\x00\x00\x00\x00\x00\x00'
p325
tp326
Rp327
sS'2003_22.0101_Asian'
p328
I2533
sS'2013_40.0_American Indian or Alaska Native'
p329
g4
(g8
S'\x0c\x00\x00\x00\x00\x00\x00\x00'
p330
tp331
Rp332
sS'2007_51.1201_Black or African American'
p333
I1084
sS'2010_14.0_American Indian or Alaska Native'
p334
I6
sS'2004_13.0_Asian'
p335
I192
sS'1999_40.0_Hispanic'
p336
I53
sS'2014_51.1201_American Indian or Alaska Native'
p337
g4
(g8
S'H\x00\x00\x00\x00\x00\x00\x00'
p338
tp339
Rp340
sS'2007_27.0_Hispanic'
p341
I21
sS'2002_14.0_Native Hawaiian or Other Pacific Islander'
p342
I358
sS'2014_52.0_Native Hawaiian or Other Pacific Islander'
p343
g4
(g8
S'\x01\x00\x00\x00\x00\x00\x00\x00'
p344
tp345
Rp346
sS'2011_22.0101_Asian'
p347
g4
(g8
S'\x86\x0c\x00\x00\x00\x00\x00\x00'
p348
tp349
Rp350
sS'2004_13.0_Hispanic'
p351
I327
sS'2002_51.1201_Asian'
p352
I2899
sS'2014_26.0_White'
p353
g4
(g8
S'a\x10\x00\x00\x00\x00\x00\x00'
p354
tp355
Rp356
sS'2001_27.0_Native Hawaiian or Other Pacific Islander'
p357
I56
sS'2003_51.0401_Native Hawaiian or Other Pacific Islander'
p358
I990
sS'2013_51.1201_Hispanic'
p359
g4
(g8
S'\xe6\x04\x00\x00\x00\x00\x00\x00'
p360
tp361
Rp362
sS'2013_22.0101_White'
p363
g4
(g8
S'\xe1z\x00\x00\x00\x00\x00\x00'
p364
tp365
Rp366
sS'2008_22.0101_Hispanic'
p367
I2911
sS'2008_14.0_Native Hawaiian or Other Pacific Islander'
p368
I501
sS'2012_51.1201_White'
p369
g4
(g8
S'R&\x00\x00\x00\x00\x00\x00'
p370
tp371
Rp372
sS'2003_22.0101_Black or African American'
p373
I2645
sS'2003_40.0_Asian'
p374
I181
sS'2010_26.0_White'
p375
I2089
sS'2010_13.0_Asian'
p376
I196
sS'2004_52.0_Hispanic'
p377
I49
sS'2006_52.0_American Indian or Alaska Native'
p378
I10
sS'2014_14.0_White'
p379
g4
(g8
S'O\x0b\x00\x00\x00\x00\x00\x00'
p380
tp381
Rp382
sS'2014_22.0101_White'
p383
g4
(g8
S'^p\x00\x00\x00\x00\x00\x00'
p384
tp385
Rp386
sS'2001_52.0_Asian'
p387
I64
sS'2012_51.0401_White'
p388
g4
(g8
S'\x12\x0b\x00\x00\x00\x00\x00\x00'
p389
tp390
Rp391
sS'2006_27.0_Native Hawaiian or Other Pacific Islander'
p392
I62
sS'2000_13.0_Native Hawaiian or Other Pacific Islander'
p393
I171
sS'2003_51.0401_White'
p394
I2689
sS'2013_51.0401_Native Hawaiian or Other Pacific Islander'
p395
g4
(g8
S'\n\x00\x00\x00\x00\x00\x00\x00'
p396
tp397
Rp398
sS'2011_51.1201_Asian'
p399
g4
(g8
S'\xd6\x0c\x00\x00\x00\x00\x00\x00'
p400
tp401
Rp402
sS'2002_52.0_Black or African American'
p403
I65
sS'2007_14.0_Black or African American'
p404
I116
sS'2007_13.0_Asian'
p405
I282
sS'2008_40.0_Native Hawaiian or Other Pacific Islander'
p406
I219
sS'2009_14.0_Native Hawaiian or Other Pacific Islander'
p407
I454
sS'2014_27.0_Asian'
p408
g4
(g8
S'P\x00\x00\x00\x00\x00\x00\x00'
p409
tp410
Rp411
sS'2015_52.0_Black or African American'
p412
g4
(g8
S'\x1f\x02\x00\x00\x00\x00\x00\x00'
p413
tp414
Rp415
sS'2000_51.0401_Native Hawaiian or Other Pacific Islander'
p416
I969
sS'1999_27.0_Native Hawaiian or Other Pacific Islander'
p417
I58
sS'2012_22.0101_American Indian or Alaska Native'
p418
g4
(g8
S'-\x01\x00\x00\x00\x00\x00\x00'
p419
tp420
Rp421
sS'2003_26.0_Hispanic'
p422
I168
sS'2005_22.0101_Hispanic'
p423
I2928
sS'2015_51.0401_Native Hawaiian or Other Pacific Islander'
p424
g4
(g8
S'\x04\x00\x00\x00\x00\x00\x00\x00'
p425
tp426
Rp427
sS'2001_26.0_White'
p428
I2627
sS'2015_51.1201_Hispanic'
p429
g4
(g8
S'I\x05\x00\x00\x00\x00\x00\x00'
p430
tp431
Rp432
sS'2011_52.0_Asian'
p433
g4
(g8
S'~\x00\x00\x00\x00\x00\x00\x00'
p434
tp435
Rp436
sS'2013_40.0_Black or African American'
p437
g4
(g8
S'o\x00\x00\x00\x00\x00\x00\x00'
p438
tp439
Rp440
sS'2011_40.0_Black or African American'
p441
g4
(g8
S'Z\x00\x00\x00\x00\x00\x00\x00'
p442
tp443
Rp444
sS'2011_52.0_Native Hawaiian or Other Pacific Islander'
p445
g4
(g8
S'\x03\x00\x00\x00\x00\x00\x00\x00'
p446
tp447
Rp448
sS'2010_52.0_American Indian or Alaska Native'
p449
I4
sS'2009_22.0101_Black or African American'
p450
I2558
sS'2006_40.0_Hispanic'
p451
I104
sS'2009_52.0_Hispanic'
p452
I64
sS'2003_27.0_White'
p453
I389
sS'2003_13.0_Native Hawaiian or Other Pacific Islander'
p454
I178
sS'2003_26.0_Asian'
p455
I445
sS'2004_22.0101_Hispanic'
p456
I2825
sS'1999_22.0101_White'
p457
I29974
sS'2013_22.0101_Hispanic'
p458
g4
(g8
S'<\x10\x00\x00\x00\x00\x00\x00'
p459
tp460
Rp461
sS'2006_22.0101_White'
p462
I30434
sS'2014_22.0101_Native Hawaiian or Other Pacific Islander'
p463
g4
(g8
S'`\x00\x00\x00\x00\x00\x00\x00'
p464
tp465
Rp466
sS'2005_13.0_Hispanic'
p467
I402
sS'2006_51.0401_Native Hawaiian or Other Pacific Islander'
p468
I762
sS'2000_52.0_Black or African American'
p469
I56
sS'2001_51.1201_Asian'
p470
I2852
sS'2015_26.0_Native Hawaiian or Other Pacific Islander'
p471
g4
(g8
S'\t\x00\x00\x00\x00\x00\x00\x00'
p472
tp473
Rp474
sS'2014_51.1201_Black or African American'
p475
g4
(g8
S'X\x04\x00\x00\x00\x00\x00\x00'
p476
tp477
Rp478
sS'2012_26.0_Hispanic'
p479
g4
(g8
S'U\x01\x00\x00\x00\x00\x00\x00'
p480
tp481
Rp482
sS'2004_27.0_White'
p483
I385
sS'2012_22.0101_Asian'
p484
g4
(g8
S'\xb2\x0c\x00\x00\x00\x00\x00\x00'
p485
tp486
Rp487
sS'2010_40.0_Black or African American'
p488
I41
sS'2003_13.0_Hispanic'
p489
I367
sS'2001_14.0_Black or African American'
p490
I98
sS'2005_13.0_Native Hawaiian or Other Pacific Islander'
p491
I198
sS'2008_51.0401_Native Hawaiian or Other Pacific Islander'
p492
I861
sS'2005_51.1201_Hispanic'
p493
I1077
sS'2006_22.0101_Black or African American'
p494
I2700
sS'2015_22.0101_White'
p495
g4
(g8
S'\x02d\x00\x00\x00\x00\x00\x00'
p496
tp497
Rp498
sS'2010_14.0_White'
p499
I1236
sS'2001_13.0_Black or African American'
p500
I731
sS'2003_14.0_White'
p501
I1576
sS'2006_14.0_American Indian or Alaska Native'
p502
I6
sS'2008_40.0_White'
p503
I1987
sS'2011_22.0101_White'
p504
g4
(g8
S'\rt\x00\x00\x00\x00\x00\x00'
p505
tp506
Rp507
sS'2009_26.0_American Indian or Alaska Native'
p508
I25
sS'2002_51.1201_Hispanic'
p509
I1071
sS'2015_26.0_Black or African American'
p510
g4
(g8
S'\xe5\x00\x00\x00\x00\x00\x00\x00'
p511
tp512
Rp513
sS'2014_13.0_Black or African American'
p514
g4
(g8
S'\x91\x07\x00\x00\x00\x00\x00\x00'
p515
tp516
Rp517
sS'2011_51.1201_Black or African American'
p518
g4
(g8
S'\x16\x04\x00\x00\x00\x00\x00\x00'
p519
tp520
Rp521
sS'2004_51.0401_Black or African American'
p522
I202
sS'1999_51.1201_White'
p523
I10847
sS'2013_52.0_Black or African American'
p524
g4
(g8
S'\xb8\x01\x00\x00\x00\x00\x00\x00'
p525
tp526
Rp527
sS'2008_52.0_Black or African American'
p528
I198
sS'2004_52.0_Native Hawaiian or Other Pacific Islander'
p529
I58
sS'2003_14.0_American Indian or Alaska Native'
p530
I12
sS'2013_22.0101_Asian'
p531
g4
(g8
S'\x95\x0c\x00\x00\x00\x00\x00\x00'
p532
tp533
Rp534
sS'2014_13.0_White'
p535
g4
(g8
S'\xb5\x18\x00\x00\x00\x00\x00\x00'
p536
tp537
Rp538
sS'1999_51.0401_White'
p539
I2651
sS'2013_14.0_Asian'
p540
g4
(g8
S'J\x02\x00\x00\x00\x00\x00\x00'
p541
tp542
Rp543
sS'1999_52.0_Black or African American'
p544
I40
sS'2015_22.0101_Hispanic'
p545
g4
(g8
S';\x10\x00\x00\x00\x00\x00\x00'
p546
tp547
Rp548
sS'2009_13.0_Black or African American'
p549
I1206
sS'2000_51.1201_Black or African American'
p550
I1077
sS'2000_27.0_White'
p551
I466
sS'2006_52.0_White'
p552
I691
sS'2006_26.0_Asian'
p553
I465
sS'2000_27.0_Hispanic'
p554
I12
sS'2010_14.0_Hispanic'
p555
I105
sS'2012_40.0_Black or African American'
p556
g4
(g8
S'`\x00\x00\x00\x00\x00\x00\x00'
p557
tp558
Rp559
sS'1999_51.0401_American Indian or Alaska Native'
p560
I22
sS'2004_51.0401_Asian'
p561
I870
sS'2007_27.0_Black or African American'
p562
I21
sS'2011_52.0_Hispanic'
p563
g4
(g8
S'n\x00\x00\x00\x00\x00\x00\x00'
p564
tp565
Rp566
sS'1999_51.1201_Hispanic'
p567
I1154
sS'2014_52.0_White'
p568
g4
(g8
S'\xd7\x04\x00\x00\x00\x00\x00\x00'
p569
tp570
Rp571
sS'2013_14.0_Native Hawaiian or Other Pacific Islander'
p572
g4
(g8
S'\x07\x00\x00\x00\x00\x00\x00\x00'
p573
tp574
Rp575
sS'2004_52.0_Asian'
p576
I58
sS'2010_51.1201_American Indian or Alaska Native'
p577
I63
sS'2007_14.0_Asian'
p578
I506
sS'2011_27.0_White'
p579
g4
(g8
S's\x02\x00\x00\x00\x00\x00\x00'
p580
tp581
Rp582
sS'1999_51.0401_Native Hawaiian or Other Pacific Islander'
p583
I813
sS'1999_13.0_Black or African American'
p584
I727
sS'2007_51.0401_Black or African American'
p585
I207
sS'2014_22.0101_American Indian or Alaska Native'
p586
g4
(g8
S'$\x01\x00\x00\x00\x00\x00\x00'
p587
tp588
Rp589
sS'1999_40.0_Asian'
p590
I252
sS'2006_52.0_Black or African American'
p591
I120
sS'2005_14.0_Black or African American'
p592
I103
sS'2005_14.0_Hispanic'
p593
I99
sS'2007_27.0_Native Hawaiian or Other Pacific Islander'
p594
I77
sS'2008_13.0_Black or African American'
p595
I1284
sS'2007_22.0101_Native Hawaiian or Other Pacific Islander'
p596
I3487
sS'2006_51.0401_Hispanic'
p597
I247
sS'1999_26.0_Native Hawaiian or Other Pacific Islander'
p598
I394
sS'2009_27.0_Native Hawaiian or Other Pacific Islander'
p599
I74
sS'2005_51.0401_Black or African American'
p600
I192
sS'2008_22.0101_American Indian or Alaska Native'
p601
I318
sS'2005_26.0_Black or African American'
p602
I149
sS'2004_51.1201_Hispanic'
p603
I1107
sS'2002_22.0101_White'
p604
I28018
sS'2012_40.0_Asian'
p605
g4
(g8
S'\x04\x01\x00\x00\x00\x00\x00\x00'
p606
tp607
Rp608
sS'2009_51.0401_Native Hawaiian or Other Pacific Islander'
p609
I843
sS'2006_14.0_Asian'
p610
I471
sS'2011_40.0_Hispanic'
p611
g4
(g8
S'\x89\x00\x00\x00\x00\x00\x00\x00'
p612
tp613
Rp614
sS'2009_51.1201_Asian'
p615
I2905
sS'2002_26.0_Hispanic'
p616
I140
sS'2005_27.0_American Indian or Alaska Native'
p617
I0
sS'2013_26.0_Native Hawaiian or Other Pacific Islander'
p618
g4
(g8
S'\x07\x00\x00\x00\x00\x00\x00\x00'
p619
tp620
Rp621
sS'2014_27.0_Hispanic'
p622
g4
(g8
S'#\x00\x00\x00\x00\x00\x00\x00'
p623
tp624
Rp625
sS'2011_14.0_Black or African American'
p626
g4
(g8
S'\x8d\x00\x00\x00\x00\x00\x00\x00'
p627
tp628
Rp629
sS'2008_40.0_Asian'
p630
I219
sS'1999_40.0_Black or African American'
p631
I63
sS'2006_51.1201_Native Hawaiian or Other Pacific Islander'
p632
I3038
sS'2002_26.0_Native Hawaiian or Other Pacific Islander'
p633
I387
sS'2000_26.0_Asian'
p634
I419
sS'2013_22.0101_American Indian or Alaska Native'
p635
g4
(g8
S'0\x01\x00\x00\x00\x00\x00\x00'
p636
tp637
Rp638
sS'2001_52.0_Native Hawaiian or Other Pacific Islander'
p639
I64
sS'2001_22.0101_American Indian or Alaska Native'
p640
I288
sS'2006_51.0401_Black or African American'
p641
I219
sS'2014_51.1201_Hispanic'
p642
g4
(g8
S'&\x05\x00\x00\x00\x00\x00\x00'
p643
tp644
Rp645
sS'2012_13.0_American Indian or Alaska Native'
p646
g4
(g8
S'B\x00\x00\x00\x00\x00\x00\x00'
p647
tp648
Rp649
sS'2001_14.0_Native Hawaiian or Other Pacific Islander'
p650
I398
sS'2005_51.1201_Black or African American'
p651
I1046
sS'2006_52.0_Hispanic'
p652
I45
sS'2006_51.1201_White'
p653
I9881
sS'2011_51.1201_Native Hawaiian or Other Pacific Islander'
p654
g4
(g8
S'\x16\x00\x00\x00\x00\x00\x00\x00'
p655
tp656
Rp657
sS'2002_14.0_Black or African American'
p658
I80
sS'2009_14.0_Black or African American'
p659
I124
sS'2000_27.0_Black or African American'
p660
I16
sS'2005_26.0_American Indian or Alaska Native'
p661
I17
sS'2011_26.0_White'
p662
g4
(g8
S']\x0f\x00\x00\x00\x00\x00\x00'
p663
tp664
Rp665
sS'2012_27.0_Native Hawaiian or Other Pacific Islander'
p666
g4
(g8
S'\x02\x00\x00\x00\x00\x00\x00\x00'
p667
tp668
Rp669
sS'2015_22.0101_Native Hawaiian or Other Pacific Islander'
p670
g4
(g8
S'>\x00\x00\x00\x00\x00\x00\x00'
p671
tp672
Rp673
sS'2007_40.0_Black or African American'
p674
I91
sS'2002_51.0401_Hispanic'
p675
I240
sS'1999_14.0_Asian'
p676
I427
sS'2008_13.0_Hispanic'
p677
I429
sS'2014_26.0_Black or African American'
p678
g4
(g8
S'\x17\x01\x00\x00\x00\x00\x00\x00'
p679
tp680
Rp681
sS'1999_51.0401_Asian'
p682
I813
sS'2002_27.0_Black or African American'
p683
I15
sS'1999_13.0_Native Hawaiian or Other Pacific Islander'
p684
I155
sS'2012_22.0101_Black or African American'
p685
g4
(g8
S'.\x0c\x00\x00\x00\x00\x00\x00'
p686
tp687
Rp688
sS'2002_13.0_White'
p689
I4694
sS'2001_27.0_Black or African American'
p690
I17
sS'2015_51.1201_Asian'
p691
g4
(g8
S'\xe7\r\x00\x00\x00\x00\x00\x00'
p692
tp693
Rp694
sS'2002_51.0401_Native Hawaiian or Other Pacific Islander'
p695
I1015
sS'2004_52.0_American Indian or Alaska Native'
p696
I8
sS'2011_40.0_Asian'
p697
g4
(g8
S'\xed\x00\x00\x00\x00\x00\x00\x00'
p698
tp699
Rp700
sS'2000_51.1201_Asian'
p701
I2593
sS'2013_26.0_American Indian or Alaska Native'
p702
g4
(g8
S'\x19\x00\x00\x00\x00\x00\x00\x00'
p703
tp704
Rp705
sS'2013_52.0_Native Hawaiian or Other Pacific Islander'
p706
g4
(g8
S'\x04\x00\x00\x00\x00\x00\x00\x00'
p707
tp708
Rp709
sS'2012_26.0_Black or African American'
p710
g4
(g8
S'\x15\x01\x00\x00\x00\x00\x00\x00'
p711
tp712
Rp713
sS'2001_27.0_Hispanic'
p714
I18
sS'2009_26.0_Asian'
p715
I493
sS'2009_40.0_American Indian or Alaska Native'
p716
I9
sS'2015_27.0_Native Hawaiian or Other Pacific Islander'
p717
g4
(g8
S'\x02\x00\x00\x00\x00\x00\x00\x00'
p718
tp719
Rp720
sS'2003_52.0_White'
p721
I544
sS'2011_26.0_Native Hawaiian or Other Pacific Islander'
p722
g4
(g8
S'\x0e\x00\x00\x00\x00\x00\x00\x00'
p723
tp724
Rp725
sS'2015_51.0401_Asian'
p726
g4
(g8
S'\x02\x05\x00\x00\x00\x00\x00\x00'
p727
tp728
Rp729
sS'2006_40.0_White'
p730
I1946
sS'2013_40.0_White'
p731
g4
(g8
S'\xd0\t\x00\x00\x00\x00\x00\x00'
p732
tp733
Rp734
sS'2012_13.0_Native Hawaiian or Other Pacific Islander'
p735
g4
(g8
S'\x0e\x00\x00\x00\x00\x00\x00\x00'
p736
tp737
Rp738
sS'2010_40.0_American Indian or Alaska Native'
p739
I7
sS'2008_27.0_American Indian or Alaska Native'
p740
I2
sS'2008_51.0401_American Indian or Alaska Native'
p741
I22
sS'2013_13.0_Hispanic'
p742
g4
(g8
S'\xdf\x02\x00\x00\x00\x00\x00\x00'
p743
tp744
Rp745
sS'2003_52.0_Native Hawaiian or Other Pacific Islander'
p746
I68
sS'2008_26.0_Black or African American'
p747
I217
sS'2009_52.0_American Indian or Alaska Native'
p748
I6
sS'2011_52.0_White'
p749
g4
(g8
S'\xb2\x03\x00\x00\x00\x00\x00\x00'
p750
tp751
Rp752
sS'2010_52.0_Asian'
p753
I63
sS'1999_14.0_Hispanic'
p754
I104
sS'2010_51.0401_Native Hawaiian or Other Pacific Islander'
p755
I540
sS'2014_27.0_Native Hawaiian or Other Pacific Islander'
p756
g4
(g8
S'\x03\x00\x00\x00\x00\x00\x00\x00'
p757
tp758
Rp759
sS'2000_22.0101_Asian'
p760
I2248
sS'2004_26.0_Hispanic'
p761
I179
sS'2000_40.0_Black or African American'
p762
I68
sS'2001_14.0_White'
p763
I1847
sS'2014_26.0_Hispanic'
p764
g4
(g8
S'\x87\x01\x00\x00\x00\x00\x00\x00'
p765
tp766
Rp767
sS'2014_13.0_Native Hawaiian or Other Pacific Islander'
p768
g4
(g8
S'\x15\x00\x00\x00\x00\x00\x00\x00'
p769
tp770
Rp771
sS'2013_13.0_White'
p772
g4
(g8
S'\x05\x18\x00\x00\x00\x00\x00\x00'
p773
tp774
Rp775
sS'2000_40.0_White'
p776
I2016
sS'2003_14.0_Hispanic'
p777
I107
sS'2006_51.1201_Hispanic'
p778
I993
sS'2005_22.0101_Asian'
p779
I3095
sS'2008_14.0_Hispanic'
p780
I128
sS'2002_22.0101_American Indian or Alaska Native'
p781
I280
sS'2001_51.1201_Native Hawaiian or Other Pacific Islander'
p782
I2852
sS'2014_13.0_American Indian or Alaska Native'
p783
g4
(g8
S'D\x00\x00\x00\x00\x00\x00\x00'
p784
tp785
Rp786
sS'2000_13.0_White'
p787
I4774
sS'2002_51.0401_Asian'
p788
I1015
sS'2002_52.0_Native Hawaiian or Other Pacific Islander'
p789
I50
sS'1999_51.1201_Asian'
p790
I2697
sS'2003_26.0_White'
p791
I2836
sS'2003_26.0_Native Hawaiian or Other Pacific Islander'
p792
I445
sS'2009_40.0_Black or African American'
p793
I67
sS'2008_51.0401_Hispanic'
p794
I242
sS'2010_51.0401_American Indian or Alaska Native'
p795
I19
sS'2005_40.0_Black or African American'
p796
I55
sS'2013_51.1201_Black or African American'
p797
g4
(g8
S' \x04\x00\x00\x00\x00\x00\x00'
p798
tp799
Rp800
sS'2008_14.0_Black or African American'
p801
I128
sS'2014_14.0_Asian'
p802
g4
(g8
S'\x85\x02\x00\x00\x00\x00\x00\x00'
p803
tp804
Rp805
sS'2000_27.0_Native Hawaiian or Other Pacific Islander'
p806
I70
sS'2012_51.1201_Asian'
p807
g4
(g8
S'\xa8\x0c\x00\x00\x00\x00\x00\x00'
p808
tp809
Rp810
sS'2007_51.1201_Asian'
p811
I3110
sS'2015_13.0_Native Hawaiian or Other Pacific Islander'
p812
g4
(g8
S'"\x00\x00\x00\x00\x00\x00\x00'
p813
tp814
Rp815
sS'2007_52.0_White'
p816
I828
sS'2001_13.0_White'
p817
I4668
sS'2007_51.1201_White'
p818
I9976
sS'2006_27.0_American Indian or Alaska Native'
p819
I0
sS'1999_40.0_White'
p820
I2381
sS'2003_51.1201_Black or African American'
p821
I998
sS'2011_14.0_Native Hawaiian or Other Pacific Islander'
p822
g4
(g8
S'\x04\x00\x00\x00\x00\x00\x00\x00'
p823
tp824
Rp825
sS'2000_14.0_Black or African American'
p826
I91
sS'2014_40.0_Black or African American'
p827
g4
(g8
S'}\x00\x00\x00\x00\x00\x00\x00'
p828
tp829
Rp830
sS'2004_52.0_White'
p831
I585
sS'2012_13.0_Black or African American'
p832
g4
(g8
S'\xce\x06\x00\x00\x00\x00\x00\x00'
p833
tp834
Rp835
sS'2008_40.0_Hispanic'
p836
I125
sS'2002_14.0_White'
p837
I1593
sS'2002_51.0401_American Indian or Alaska Native'
p838
I26
sS'2009_51.1201_American Indian or Alaska Native'
p839
I92
sS'2001_51.0401_American Indian or Alaska Native'
p840
I34
sS'2003_14.0_Native Hawaiian or Other Pacific Islander'
p841
I295
sS'2005_51.0401_American Indian or Alaska Native'
p842
I16
sS'2010_40.0_White'
p843
I1237
sS'2004_51.0401_Hispanic'
p844
I240
sS'2000_51.1201_White'
p845
I10484
sS'2009_52.0_White'
p846
I684
sS'2011_26.0_Black or African American'
p847
g4
(g8
S'\x06\x01\x00\x00\x00\x00\x00\x00'
p848
tp849
Rp850
sS'2004_22.0101_Asian'
p851
I2597
sS'2004_14.0_American Indian or Alaska Native'
p852
I8
sS'2013_27.0_Asian'
p853
g4
(g8
S'f\x00\x00\x00\x00\x00\x00\x00'
p854
tp855
Rp856
sS'2015_40.0_Asian'
p857
g4
(g8
S'\x0c\x01\x00\x00\x00\x00\x00\x00'
p858
tp859
Rp860
sS'2008_52.0_White'
p861
I859
sS'2011_51.1201_Hispanic'
p862
g4
(g8
S'\x8b\x04\x00\x00\x00\x00\x00\x00'
p863
tp864
Rp865
sS'2007_51.0401_Native Hawaiian or Other Pacific Islander'
p866
I873
sS'2012_52.0_White'
p867
g4
(g8
S'9\x04\x00\x00\x00\x00\x00\x00'
p868
tp869
Rp870
sS'2013_14.0_White'
p871
g4
(g8
S'j\n\x00\x00\x00\x00\x00\x00'
p872
tp873
Rp874
sS'2014_27.0_White'
p875
g4
(g8
S'\xc8\x02\x00\x00\x00\x00\x00\x00'
p876
tp877
Rp878
sS'2013_27.0_White'
p879
g4
(g8
S'\x8d\x02\x00\x00\x00\x00\x00\x00'
p880
tp881
Rp882
sS'2014_13.0_Asian'
p883
g4
(g8
S'c\x01\x00\x00\x00\x00\x00\x00'
p884
tp885
Rp886
sS'2015_40.0_Native Hawaiian or Other Pacific Islander'
p887
g4
(g8
S'\x06\x00\x00\x00\x00\x00\x00\x00'
p888
tp889
Rp890
sS'2004_22.0101_Native Hawaiian or Other Pacific Islander'
p891
I2597
sS'2006_22.0101_Asian'
p892
I3275
sS'2012_14.0_Hispanic'
p893
g4
(g8
S'\xbc\x00\x00\x00\x00\x00\x00\x00'
p894
tp895
Rp896
sS'2006_26.0_American Indian or Alaska Native'
p897
I18
sS'2002_51.1201_White'
p898
I9964
sS'2009_51.1201_White'
p899
I8914
sS'2002_52.0_American Indian or Alaska Native'
p900
I4
sS'2002_27.0_White'
p901
I371
sS'2015_27.0_Hispanic'
p902
g4
(g8
S'#\x00\x00\x00\x00\x00\x00\x00'
p903
tp904
Rp905
sS'2001_22.0101_Asian'
p906
I2459
sS'2014_40.0_Asian'
p907
g4
(g8
S'\xfe\x00\x00\x00\x00\x00\x00\x00'
p908
tp909
Rp910
sS'2005_14.0_Native Hawaiian or Other Pacific Islander'
p911
I370
sS'2008_52.0_Native Hawaiian or Other Pacific Islander'
p912
I95
sS'2014_51.0401_Native Hawaiian or Other Pacific Islander'
p913
g4
(g8
S'\x10\x00\x00\x00\x00\x00\x00\x00'
p914
tp915
Rp916
sS'2003_51.0401_Asian'
p917
I990
sS'2014_22.0101_Hispanic'
p918
g4
(g8
S'\x8d\x10\x00\x00\x00\x00\x00\x00'
p919
tp920
Rp921
sS'2002_51.1201_Native Hawaiian or Other Pacific Islander'
p922
I2899
sS'2011_51.0401_Hispanic'
p923
g4
(g8
S'R\x01\x00\x00\x00\x00\x00\x00'
p924
tp925
Rp926
sS'2005_14.0_Asian'
p927
I370
sS'2000_22.0101_White'
p928
I28462
sS'2009_27.0_White'
p929
I503
sS'2010_26.0_American Indian or Alaska Native'
p930
I10
sS'2003_27.0_Black or African American'
p931
I20
sS'2009_14.0_White'
p932
I1962
sS'2005_22.0101_White'
p933
I31106
sS'1999_27.0_White'
p934
I549
sS'2002_13.0_American Indian or Alaska Native'
p935
I51
sS'2013_51.0401_White'
p936
g4
(g8
S'\x02\x0b\x00\x00\x00\x00\x00\x00'
p937
tp938
Rp939
sS'2014_40.0_White'
p940
g4
(g8
S'\xc6\t\x00\x00\x00\x00\x00\x00'
p941
tp942
Rp943
sS'2003_51.0401_Black or African American'
p944
I175
sS'2006_26.0_Hispanic'
p945
I186
sS'2014_52.0_Black or African American'
p946
g4
(g8
S'\x01\x02\x00\x00\x00\x00\x00\x00'
p947
tp948
Rp949
sS'2004_40.0_American Indian or Alaska Native'
p950
I15
sS'2005_51.1201_Native Hawaiian or Other Pacific Islander'
p951
I2995
sS'2001_51.1201_Hispanic'
p952
I1102
sS'2005_27.0_Native Hawaiian or Other Pacific Islander'
p953
I53
sS'2002_13.0_Black or African American'
p954
I856
sS'2013_52.0_White'
p955
g4
(g8
S'\xa7\x04\x00\x00\x00\x00\x00\x00'
p956
tp957
Rp958
sS'2015_52.0_Hispanic'
p959
g4
(g8
S'\x97\x00\x00\x00\x00\x00\x00\x00'
p960
tp961
Rp962
sS'2008_40.0_American Indian or Alaska Native'
p963
I7
sS'2014_26.0_American Indian or Alaska Native'
p964
g4
(g8
S'\x11\x00\x00\x00\x00\x00\x00\x00'
p965
tp966
Rp967
sS'2006_27.0_Black or African American'
p968
I20
sS'2000_40.0_Native Hawaiian or Other Pacific Islander'
p969
I201
sS'2002_40.0_American Indian or Alaska Native'
p970
I9
sS'2002_40.0_Asian'
p971
I182
sS'2002_14.0_Asian'
p972
I358
sS'2006_13.0_Black or African American'
p973
I1015
sS'2003_40.0_White'
p974
I1882
sS'2009_40.0_Asian'
p975
I183
sS'2008_27.0_White'
p976
I484
sS'2001_22.0101_White'
p977
I28109
sS'2008_51.0401_Asian'
p978
I861
sS'2002_40.0_Hispanic'
p979
I73
sS'2013_51.1201_Asian'
p980
g4
(g8
S'@\r\x00\x00\x00\x00\x00\x00'
p981
tp982
Rp983
sS'2015_52.0_American Indian or Alaska Native'
p984
g4
(g8
S'\x12\x00\x00\x00\x00\x00\x00\x00'
p985
tp986
Rp987
sS'1999_13.0_Hispanic'
p988
I290
sS'2009_51.1201_Hispanic'
p989
I779
sS'2015_14.0_Black or African American'
p990
g4
(g8
S'\xa2\x00\x00\x00\x00\x00\x00\x00'
p991
tp992
Rp993
sS'1999_51.1201_Black or African American'
p994
I1185
sS'2010_27.0_Asian'
p995
I57
sS'2006_40.0_Asian'
p996
I231
sS'2010_22.0101_Asian'
p997
I1910
sS'2000_40.0_American Indian or Alaska Native'
p998
I14
sS'2009_22.0101_Asian'
p999
I3044
sS'2009_40.0_White'
p1000
I1971
sS'2009_51.0401_Black or African American'
p1001
I261
sS'2014_27.0_Black or African American'
p1002
g4
(g8
S'\x1d\x00\x00\x00\x00\x00\x00\x00'
p1003
tp1004
Rp1005
sS'2012_13.0_Asian'
p1006
g4
(g8
S'>\x01\x00\x00\x00\x00\x00\x00'
p1007
tp1008
Rp1009
sS'2006_51.1201_Black or African American'
p1010
I1115
sS'2010_51.0401_Hispanic'
p1011
I155
sS'2005_51.0401_Hispanic'
p1012
I255
sS'2006_14.0_Hispanic'
p1013
I104
sS'2005_13.0_Black or African American'
p1014
I1145
sS'2004_40.0_Hispanic'
p1015
I83
sS'2004_13.0_White'
p1016
I4498
sS'2005_27.0_Black or African American'
p1017
I18
sS'2007_51.0401_Hispanic'
p1018
I224
sS'2015_26.0_Hispanic'
p1019
g4
(g8
S'\xbe\x01\x00\x00\x00\x00\x00\x00'
p1020
tp1021
Rp1022
sS'2004_14.0_Black or African American'
p1023
I97
sS'2007_40.0_Hispanic'
p1024
I109
sS'2004_27.0_Hispanic'
p1025
I23
sS'2009_13.0_American Indian or Alaska Native'
p1026
I58
sS'2003_51.1201_Hispanic'
p1027
I1058
sS'2003_13.0_Black or African American'
p1028
I881
sS'2000_51.0401_Hispanic'
p1029
I234
sS'2007_27.0_White'
p1030
I459
sS'2009_51.0401_Hispanic'
p1031
I233
sS'2006_22.0101_Native Hawaiian or Other Pacific Islander'
p1032
I3275
sS'2009_27.0_Hispanic'
p1033
I34
sS'1999_14.0_Black or African American'
p1034
I82
sS'2003_40.0_American Indian or Alaska Native'
p1035
I7
sS'2004_26.0_Black or African American'
p1036
I154
sS'2007_14.0_Hispanic'
p1037
I136
sS'2009_22.0101_White'
p1038
I25992
sS'2009_26.0_White'
p1039
I3133
sS'2005_51.1201_Asian'
p1040
I2995
sS'2002_22.0101_Native Hawaiian or Other Pacific Islander'
p1041
I2441
sS'2014_51.0401_Hispanic'
p1042
g4
(g8
S'\x99\x01\x00\x00\x00\x00\x00\x00'
p1043
tp1044
Rp1045
sS'2013_51.1201_White'
p1046
g4
(g8
S"\xe8'\x00\x00\x00\x00\x00\x00"
p1047
tp1048
Rp1049
sS'2010_13.0_Native Hawaiian or Other Pacific Islander'
p1050
I196
sS'2015_51.1201_Black or African American'
p1051
g4
(g8
S'u\x04\x00\x00\x00\x00\x00\x00'
p1052
tp1053
Rp1054
sS'2014_51.0401_Asian'
p1055
g4
(g8
S'O\x04\x00\x00\x00\x00\x00\x00'
p1056
tp1057
Rp1058
sS'2008_13.0_Asian'
p1059
I256
sS'2005_26.0_Native Hawaiian or Other Pacific Islander'
p1060
I487
sS'2007_51.1201_American Indian or Alaska Native'
p1061
I119
sS'2000_40.0_Hispanic'
p1062
I76
sS'2007_13.0_Hispanic'
p1063
I400
sS'2010_51.1201_Black or African American'
p1064
I640
sS'2006_13.0_Asian'
p1065
I223
sS'2010_22.0101_American Indian or Alaska Native'
p1066
I137
sS'2001_40.0_American Indian or Alaska Native'
p1067
I5
sS'2011_13.0_Native Hawaiian or Other Pacific Islander'
p1068
g4
(g8
S'\x0f\x00\x00\x00\x00\x00\x00\x00'
p1069
tp1070
Rp1071
sS'2004_13.0_Native Hawaiian or Other Pacific Islander'
p1072
I192
sS'2013_51.0401_Asian'
p1073
g4
(g8
S'\x0e\x04\x00\x00\x00\x00\x00\x00'
p1074
tp1075
Rp1076
sS'2013_27.0_Black or African American'
p1077
g4
(g8
S'\x1b\x00\x00\x00\x00\x00\x00\x00'
p1078
tp1079
Rp1080
sS'2004_51.1201_Asian'
p1081
I2900
sS'2003_27.0_American Indian or Alaska Native'
p1082
I1
sS'2007_26.0_American Indian or Alaska Native'
p1083
I21
sS'2012_14.0_Black or African American'
p1084
g4
(g8
S'\xab\x00\x00\x00\x00\x00\x00\x00'
p1085
tp1086
Rp1087
sS'2015_26.0_White'
p1088
g4
(g8
S'\xba\x0f\x00\x00\x00\x00\x00\x00'
p1089
tp1090
Rp1091
sS'2014_14.0_Black or African American'
p1092
g4
(g8
S'\xa7\x00\x00\x00\x00\x00\x00\x00'
p1093
tp1094
Rp1095
sS'2014_40.0_American Indian or Alaska Native'
p1096
g4
(g8
S'\x12\x00\x00\x00\x00\x00\x00\x00'
p1097
tp1098
Rp1099
sS'2015_14.0_Native Hawaiian or Other Pacific Islander'
p1100
g4
(g8
S'\x01\x00\x00\x00\x00\x00\x00\x00'
p1101
tp1102
Rp1103
sS'2005_22.0101_Black or African American'
p1104
I2839
sS'2013_26.0_White'
p1105
g4
(g8
S'\x98\x0f\x00\x00\x00\x00\x00\x00'
p1106
tp1107
Rp1108
sS'2009_51.1201_Native Hawaiian or Other Pacific Islander'
p1109
I2905
sS'2009_51.0401_American Indian or Alaska Native'
p1110
I31
sS'2015_27.0_Black or African American'
p1111
g4
(g8
S'\x14\x00\x00\x00\x00\x00\x00\x00'
p1112
tp1113
Rp1114
sS'2015_13.0_Black or African American'
p1115
g4
(g8
S'E\x08\x00\x00\x00\x00\x00\x00'
p1116
tp1117
Rp1118
sS'2004_40.0_Native Hawaiian or Other Pacific Islander'
p1119
I178
sS'2011_51.0401_Asian'
p1120
g4
(g8
S'T\x03\x00\x00\x00\x00\x00\x00'
p1121
tp1122
Rp1123
sS'2008_13.0_White'
p1124
I5057
sS'1999_14.0_White'
p1125
I2333
sS'2009_51.0401_Asian'
p1126
I843
sS'2013_52.0_Asian'
p1127
g4
(g8
S'\xb2\x00\x00\x00\x00\x00\x00\x00'
p1128
tp1129
Rp1130
sS'2005_14.0_White'
p1131
I1692
sS'2010_26.0_Asian'
p1132
I433
sS'2008_14.0_White'
p1133
I2116
sS'2002_22.0101_Hispanic'
p1134
I2680
sS'2012_40.0_White'
p1135
g4
(g8
S'Z\t\x00\x00\x00\x00\x00\x00'
p1136
tp1137
Rp1138
sS'2011_13.0_Black or African American'
p1139
g4
(g8
S'@\x06\x00\x00\x00\x00\x00\x00'
p1140
tp1141
Rp1142
sS'2001_27.0_White'
p1143
I409
sS'2012_26.0_Asian'
p1144
g4
(g8
S'\xab\x02\x00\x00\x00\x00\x00\x00'
p1145
tp1146
Rp1147
sS'2008_26.0_Hispanic'
p1148
I243
sS'2001_22.0101_Hispanic'
p1149
I2619
sS'2002_51.0401_White'
p1150
I2723
sS'2003_51.1201_American Indian or Alaska Native'
p1151
I105
sS'2013_22.0101_Native Hawaiian or Other Pacific Islander'
p1152
g4
(g8
S'\x95\x00\x00\x00\x00\x00\x00\x00'
p1153
tp1154
Rp1155
sS'2015_40.0_Black or African American'
p1156
g4
(g8
S'w\x00\x00\x00\x00\x00\x00\x00'
p1157
tp1158
Rp1159
sS'2002_13.0_Asian'
p1160
I172
sS'2015_40.0_American Indian or Alaska Native'
p1161
g4
(g8
S'\x0e\x00\x00\x00\x00\x00\x00\x00'
p1162
tp1163
Rp1164
sS'2008_13.0_Native Hawaiian or Other Pacific Islander'
p1165
I256
sS'2007_13.0_Black or African American'
p1166
I1371
sS'2003_13.0_White'
p1167
I4534
sS'2013_26.0_Asian'
p1168
g4
(g8
S'\xb8\x02\x00\x00\x00\x00\x00\x00'
p1169
tp1170
Rp1171
sS'2003_13.0_American Indian or Alaska Native'
p1172
I46
sS'2000_27.0_Asian'
p1173
I70
sS'2013_27.0_American Indian or Alaska Native'
p1174
g4
(g8
S'\x03\x00\x00\x00\x00\x00\x00\x00'
p1175
tp1176
Rp1177
sS'2004_26.0_White'
p1178
I2907
sS'2004_51.1201_Native Hawaiian or Other Pacific Islander'
p1179
I2900
sS'2003_52.0_American Indian or Alaska Native'
p1180
I3
sS'2012_51.1201_Black or African American'
p1181
g4
(g8
S'E\x04\x00\x00\x00\x00\x00\x00'
p1182
tp1183
Rp1184
sS'2008_13.0_American Indian or Alaska Native'
p1185
I53
sS'2005_52.0_White'
p1186
I627
sS'2004_51.0401_White'
p1187
I2620
sS'2000_14.0_Native Hawaiian or Other Pacific Islander'
p1188
I381
sS'2009_52.0_Native Hawaiian or Other Pacific Islander'
p1189
I95
sS'1999_51.0401_Black or African American'
p1190
I185
sS'2012_22.0101_Native Hawaiian or Other Pacific Islander'
p1191
g4
(g8
S'|\x00\x00\x00\x00\x00\x00\x00'
p1192
tp1193
Rp1194
sS'2012_40.0_American Indian or Alaska Native'
p1195
g4
(g8
S'\x08\x00\x00\x00\x00\x00\x00\x00'
p1196
tp1197
Rp1198
sS'2011_52.0_Black or African American'
p1199
g4
(g8
S'&\x01\x00\x00\x00\x00\x00\x00'
p1200
tp1201
Rp1202
sS'2003_27.0_Hispanic'
p1203
I17
sS'2000_13.0_American Indian or Alaska Native'
p1204
I43
sS'2013_26.0_Hispanic'
p1205
g4
(g8
S'\x9a\x01\x00\x00\x00\x00\x00\x00'
p1206
tp1207
Rp1208
sS'2001_51.0401_Black or African American'
p1209
I190
sS'2007_51.0401_American Indian or Alaska Native'
p1210
I26
sS'2006_51.0401_American Indian or Alaska Native'
p1211
I27
sS'2005_40.0_Native Hawaiian or Other Pacific Islander'
p1212
I213
sS'2010_40.0_Asian'
p1213
I156
sS'2004_40.0_White'
p1214
I1790
sS'2011_40.0_Native Hawaiian or Other Pacific Islander'
p1215
g4
(g8
S'\x06\x00\x00\x00\x00\x00\x00\x00'
p1216
tp1217
Rp1218
sS'2003_26.0_American Indian or Alaska Native'
p1219
I12
sS'2003_22.0101_White'
p1220
I28061
sS'2007_14.0_White'
p1221
I1976
sS'2000_13.0_Black or African American'
p1222
I780
sS'2001_14.0_Hispanic'
p1223
I88
sS'2006_27.0_Asian'
p1224
I62
sS'1999_13.0_Asian'
p1225
I155
sS'2015_14.0_American Indian or Alaska Native'
p1226
g4
(g8
S'\r\x00\x00\x00\x00\x00\x00\x00'
p1227
tp1228
Rp1229
sS'2004_51.0401_American Indian or Alaska Native'
p1230
I17
sS'2002_13.0_Hispanic'
p1231
I346
sS'2010_22.0101_Native Hawaiian or Other Pacific Islander'
p1232
I1910
sS'2007_52.0_Hispanic'
p1233
I68
sS'2014_51.0401_Black or African American'
p1234
g4
(g8
S'\xff\x00\x00\x00\x00\x00\x00\x00'
p1235
tp1236
Rp1237
sS'2015_40.0_Hispanic'
p1238
g4
(g8
S'\xb6\x00\x00\x00\x00\x00\x00\x00'
p1239
tp1240
Rp1241
sS'2006_40.0_Native Hawaiian or Other Pacific Islander'
p1242
I231
sS'2005_27.0_Hispanic'
p1243
I21
sS'2011_51.0401_Black or African American'
p1244
g4
(g8
S'\x03\x01\x00\x00\x00\x00\x00\x00'
p1245
tp1246
Rp1247
sS'2015_52.0_Asian'
p1248
g4
(g8
S'\xc2\x00\x00\x00\x00\x00\x00\x00'
p1249
tp1250
Rp1251
sS'2002_40.0_White'
p1252
I1905
sS'2004_14.0_Native Hawaiian or Other Pacific Islander'
p1253
I343
sS'2001_51.0401_Hispanic'
p1254
I251
sS'2001_51.0401_Asian'
p1255
I1050
sS'2012_40.0_Hispanic'
p1256
g4
(g8
S'\x98\x00\x00\x00\x00\x00\x00\x00'
p1257
tp1258
Rp1259
sS'2005_22.0101_American Indian or Alaska Native'
p1260
I297
sS'2002_27.0_American Indian or Alaska Native'
p1261
I2
sS'2001_14.0_Asian'
p1262
I398
sS'2005_51.0401_Asian'
p1263
I861
sS'2008_26.0_American Indian or Alaska Native'
p1264
I16
sS'2012_27.0_White'
p1265
g4
(g8
S'|\x02\x00\x00\x00\x00\x00\x00'
p1266
tp1267
Rp1268
sS'2013_22.0101_Black or African American'
p1269
g4
(g8
S'\xa6\x0c\x00\x00\x00\x00\x00\x00'
p1270
tp1271
Rp1272
sS'2005_51.1201_American Indian or Alaska Native'
p1273
I93
sS'2010_13.0_White'
p1274
I2975
sS'2007_27.0_American Indian or Alaska Native'
p1275
I1
sS'2009_51.0401_White'
p1276
I2500
sS'2008_27.0_Asian'
p1277
I53
sS'2005_14.0_American Indian or Alaska Native'
p1278
I6
sS'2004_27.0_Native Hawaiian or Other Pacific Islander'
p1279
I46
sS'2003_51.1201_Asian'
p1280
I2879
sS'2014_51.0401_White'
p1281
g4
(g8
S'\x86\x0b\x00\x00\x00\x00\x00\x00'
p1282
tp1283
Rp1284
sS'2007_26.0_Black or African American'
p1285
I172
sS'2006_52.0_Native Hawaiian or Other Pacific Islander'
p1286
I89
sS'2012_51.0401_Black or African American'
p1287
g4
(g8
S'\xf4\x00\x00\x00\x00\x00\x00\x00'
p1288
tp1289
Rp1290
sS'2008_27.0_Native Hawaiian or Other Pacific Islander'
p1291
I53
sS'2000_14.0_Hispanic'
p1292
I86
sS'2001_26.0_Native Hawaiian or Other Pacific Islander'
p1293
I386
sS'2000_26.0_Hispanic'
p1294
I148
sS'2013_27.0_Native Hawaiian or Other Pacific Islander'
p1295
g4
(g8
S'\x00\x00\x00\x00\x00\x00\x00\x00'
p1296
tp1297
Rp1298
sS'2002_40.0_Black or African American'
p1299
I72
sS'2012_51.1201_Native Hawaiian or Other Pacific Islander'
p1300
g4
(g8
S'\x1d\x00\x00\x00\x00\x00\x00\x00'
p1301
tp1302
Rp1303
sS'2000_22.0101_American Indian or Alaska Native'
p1304
I306
sS'2001_52.0_Hispanic'
p1305
I32
sS'2009_13.0_Hispanic'
p1306
I483
sS'2013_51.0401_American Indian or Alaska Native'
p1307
g4
(g8
S'\x19\x00\x00\x00\x00\x00\x00\x00'
p1308
tp1309
Rp1310
sS'2000_26.0_American Indian or Alaska Native'
p1311
I8
sS'2010_40.0_Native Hawaiian or Other Pacific Islander'
p1312
I156
sS'2009_22.0101_American Indian or Alaska Native'
p1313
I282
sS'2001_13.0_Hispanic'
p1314
I314
sS'2000_13.0_Hispanic'
p1315
I312
sS'2012_26.0_Native Hawaiian or Other Pacific Islander'
p1316
g4
(g8
S'\t\x00\x00\x00\x00\x00\x00\x00'
p1317
tp1318
Rp1319
sS'2001_27.0_Asian'
p1320
I56
sS'2011_27.0_Hispanic'
p1321
g4
(g8
S'\x1d\x00\x00\x00\x00\x00\x00\x00'
p1322
tp1323
Rp1324
sS'2006_14.0_Native Hawaiian or Other Pacific Islander'
p1325
I471
sS'2009_40.0_Native Hawaiian or Other Pacific Islander'
p1326
I183
sS'2005_52.0_Hispanic'
p1327
I57
sS'2010_51.0401_Asian'
p1328
I540
sS'2005_13.0_White'
p1329
I4862
sS'2002_22.0101_Black or African American'
p1330
I2791
sS'2011_51.1201_American Indian or Alaska Native'
p1331
g4
(g8
S']\x00\x00\x00\x00\x00\x00\x00'
p1332
tp1333
Rp1334
sS'2006_40.0_American Indian or Alaska Native'
p1335
I8
sS'2011_13.0_White'
p1336
g4
(g8
S'(\x16\x00\x00\x00\x00\x00\x00'
p1337
tp1338
Rp1339
sS'2005_13.0_Asian'
p1340
I198
sS'2008_22.0101_Native Hawaiian or Other Pacific Islander'
p1341
I3409
sS'2002_51.1201_American Indian or Alaska Native'
p1342
I119
sS'2006_27.0_White'
p1343
I430
sS'2015_14.0_Hispanic'
p1344
g4
(g8
S'\x1b\x01\x00\x00\x00\x00\x00\x00'
p1345
tp1346
Rp1347
sS'2008_51.1201_Black or African American'
p1348
I1060
sS'1999_26.0_Asian'
p1349
I394
sS'2011_22.0101_Hispanic'
p1350
g4
(g8
S'\xe0\r\x00\x00\x00\x00\x00\x00'
p1351
tp1352
Rp1353
sS'2015_14.0_White'
p1354
g4
(g8
S'\x9b\x0b\x00\x00\x00\x00\x00\x00'
p1355
tp1356
Rp1357
sS'2006_13.0_Native Hawaiian or Other Pacific Islander'
p1358
I223
sS'2003_22.0101_Native Hawaiian or Other Pacific Islander'
p1359
I2533
sS'2001_40.0_Native Hawaiian or Other Pacific Islander'
p1360
I240
sS'2007_52.0_Asian'
p1361
I131
sS'2009_27.0_Asian'
p1362
I74
sS'2002_52.0_Hispanic'
p1363
I20
sS'2010_52.0_White'
p1364
I469
sS'2000_51.0401_Black or African American'
p1365
I208
sS'2009_27.0_Black or African American'
p1366
I26
sS'2006_26.0_Black or African American'
p1367
I165
sS'2006_13.0_White'
p1368
I4743
sS'2000_22.0101_Native Hawaiian or Other Pacific Islander'
p1369
I2248
sS'1999_27.0_American Indian or Alaska Native'
p1370
I2
sS'2012_13.0_Hispanic'
p1371
g4
(g8
S'\xb3\x02\x00\x00\x00\x00\x00\x00'
p1372
tp1373
Rp1374
sS'2001_26.0_Black or African American'
p1375
I97
sS'2004_26.0_Asian'
p1376
I469
sS'2012_26.0_American Indian or Alaska Native'
p1377
g4
(g8
S' \x00\x00\x00\x00\x00\x00\x00'
p1378
tp1379
Rp1380
sS'1999_26.0_Black or African American'
p1381
I92
sS'2006_13.0_American Indian or Alaska Native'
p1382
I50
sS'2000_40.0_Asian'
p1383
I201
sS'2008_51.0401_White'
p1384
I2821
sS'2007_13.0_White'
p1385
I5054
sS'2012_51.0401_Hispanic'
p1386
g4
(g8
S'(\x01\x00\x00\x00\x00\x00\x00'
p1387
tp1388
Rp1389
sS'2005_51.0401_White'
p1390
I2689
sS'2002_27.0_Asian'
p1391
I25
sS'1999_14.0_Native Hawaiian or Other Pacific Islander'
p1392
I427
sS'2015_51.1201_American Indian or Alaska Native'
p1393
g4
(g8
S'@\x00\x00\x00\x00\x00\x00\x00'
p1394
tp1395
Rp1396
sS'2009_40.0_Hispanic'
p1397
I114
sS'2001_51.1201_American Indian or Alaska Native'
p1398
I88
sS'2004_51.1201_Black or African American'
p1399
I1004
sS'2015_22.0101_Asian'
p1400
g4
(g8
S'P\n\x00\x00\x00\x00\x00\x00'
p1401
tp1402
Rp1403
sS'2005_40.0_American Indian or Alaska Native'
p1404
I10
sS'2011_27.0_Black or African American'
p1405
g4
(g8
S'\x17\x00\x00\x00\x00\x00\x00\x00'
p1406
tp1407
Rp1408
sS'2001_40.0_Black or African American'
p1409
I75
sS'2003_51.1201_White'
p1410
I9583
sS'2010_22.0101_Black or African American'
p1411
I1642
sS'2009_27.0_American Indian or Alaska Native'
p1412
I3
sS'2004_26.0_American Indian or Alaska Native'
p1413
I15
sS'2008_52.0_Hispanic'
p1414
I65
sS'2009_26.0_Native Hawaiian or Other Pacific Islander'
p1415
I493
sS'2006_40.0_Black or African American'
p1416
I58
sS'2005_51.0401_Native Hawaiian or Other Pacific Islander'
p1417
I861
sS'2011_22.0101_American Indian or Alaska Native'
p1418
g4
(g8
S'H\x01\x00\x00\x00\x00\x00\x00'
p1419
tp1420
Rp1421
sS'2007_52.0_American Indian or Alaska Native'
p1422
I5
sS'2007_51.1201_Hispanic'
p1423
I1070
sS'2010_26.0_Black or African American'
p1424
I109
sS'2009_51.1201_Black or African American'
p1425
I928
sS'1999_13.0_White'
p1426
I4806
sS'2000_52.0_American Indian or Alaska Native'
p1427
I5
sS'2011_40.0_American Indian or Alaska Native'
p1428
g4
(g8
S'\x0b\x00\x00\x00\x00\x00\x00\x00'
p1429
tp1430
Rp1431
sS'2013_26.0_Black or African American'
p1432
g4
(g8
S'3\x01\x00\x00\x00\x00\x00\x00'
p1433
tp1434
Rp1435
sS'1999_27.0_Black or African American'
p1436
I18
sS'2015_27.0_White'
p1437
g4
(g8
S'\xa5\x02\x00\x00\x00\x00\x00\x00'
p1438
tp1439
Rp1440
sS'2000_51.1201_Hispanic'
p1441
I1124
sS'2007_22.0101_Asian'
p1442
I3487
sS'2003_40.0_Native Hawaiian or Other Pacific Islander'
p1443
I181
sS'2004_52.0_Black or African American'
p1444
I98
sS'2011_14.0_American Indian or Alaska Native'
p1445
g4
(g8
S'\x0e\x00\x00\x00\x00\x00\x00\x00'
p1446
tp1447
Rp1448
sS'2013_51.1201_Native Hawaiian or Other Pacific Islander'
p1449
g4
(g8
S'\x1a\x00\x00\x00\x00\x00\x00\x00'
p1450
tp1451
Rp1452
sS'2008_26.0_White'
p1453
I3372
sS'2003_13.0_Asian'
p1454
I178
sS'2008_40.0_Black or African American'
p1455
I82
sS'2005_40.0_White'
p1456
I1801
sS'2015_22.0101_Black or African American'
p1457
g4
(g8
S'R\x0c\x00\x00\x00\x00\x00\x00'
p1458
tp1459
Rp1460
sS'2000_52.0_Native Hawaiian or Other Pacific Islander'
p1461
I64
sS'2001_22.0101_Black or African American'
p1462
I2668
sS'2009_52.0_Asian'
p1463
I95
sS'2015_51.1201_Native Hawaiian or Other Pacific Islander'
p1464
g4
(g8
S'\x1d\x00\x00\x00\x00\x00\x00\x00'
p1465
tp1466
Rp1467
sS'2010_51.1201_Asian'
p1468
I1877
sS'2003_52.0_Black or African American'
p1469
I84
sS'2014_14.0_American Indian or Alaska Native'
p1470
g4
(g8
S'\r\x00\x00\x00\x00\x00\x00\x00'
p1471
tp1472
Rp1473
sS'2007_22.0101_White'
p1474
I29442
sS'1999_52.0_Hispanic'
p1475
I30
sS'2014_27.0_American Indian or Alaska Native'
p1476
g4
(g8
S'\x01\x00\x00\x00\x00\x00\x00\x00'
p1477
tp1478
Rp1479
sS'2010_22.0101_Hispanic'
p1480
I1624
sS'2014_14.0_Hispanic'
p1481
g4
(g8
S'\xf6\x00\x00\x00\x00\x00\x00\x00'
p1482
tp1483
Rp1484
sS'2000_22.0101_Hispanic'
p1485
I2562
sS'1999_51.1201_American Indian or Alaska Native'
p1486
I119
sS'2013_51.0401_Hispanic'
p1487
g4
(g8
S'P\x01\x00\x00\x00\x00\x00\x00'
p1488
tp1489
Rp1490
sS'2011_27.0_American Indian or Alaska Native'
p1491
g4
(g8
S'\x05\x00\x00\x00\x00\x00\x00\x00'
p1492
tp1493
Rp1494
sS'2008_51.1201_Hispanic'
p1495
I797
sS'2006_51.1201_Asian'
p1496
I3038
sS'2014_52.0_Asian'
p1497
g4
(g8
S'\xa5\x00\x00\x00\x00\x00\x00\x00'
p1498
tp1499
Rp1500
sS'2000_51.0401_Asian'
p1501
I969
sS'2006_22.0101_American Indian or Alaska Native'
p1502
I333
sS'2007_26.0_White'
p1503
I3258
sS'2009_26.0_Hispanic'
p1504
I215
sS'2012_27.0_American Indian or Alaska Native'
p1505
g4
(g8
S'\x00\x00\x00\x00\x00\x00\x00\x00'
p1506
tp1507
Rp1508
sS'1999_51.0401_Hispanic'
p1509
I215
sS'2015_51.1201_White'
p1510
g4
(g8
S'\xb7(\x00\x00\x00\x00\x00\x00'
p1511
tp1512
Rp1513
sS'2003_51.0401_Hispanic'
p1514
I253
sS'2002_52.0_Asian'
p1515
I50
sS'2002_26.0_American Indian or Alaska Native'
p1516
I14
sS'2007_14.0_American Indian or Alaska Native'
p1517
I8
sS'2013_52.0_American Indian or Alaska Native'
p1518
g4
(g8
S'\x0e\x00\x00\x00\x00\x00\x00\x00'
p1519
tp1520
Rp1521
sS'2015_51.0401_American Indian or Alaska Native'
p1522
g4
(g8
S'\x14\x00\x00\x00\x00\x00\x00\x00'
p1523
tp1524
Rp1525
sS'2011_26.0_Hispanic'
p1526
g4
(g8
S'S\x01\x00\x00\x00\x00\x00\x00'
p1527
tp1528
Rp1529
sS'2000_51.1201_American Indian or Alaska Native'
p1530
I125
sS'2008_22.0101_Asian'
p1531
I3409
sS'2015_27.0_American Indian or Alaska Native'
p1532
g4
(g8
S'\x01\x00\x00\x00\x00\x00\x00\x00'
p1533
tp1534
Rp1535
sS'2007_40.0_Native Hawaiian or Other Pacific Islander'
p1536
I228
sS'2004_22.0101_Black or African American'
p1537
I2754
sS'2007_52.0_Native Hawaiian or Other Pacific Islander'
p1538
I131
sS'2015_52.0_White'
p1539
g4
(g8
S'\xe2\x04\x00\x00\x00\x00\x00\x00'
p1540
tp1541
Rp1542
sS'2002_14.0_American Indian or Alaska Native'
p1543
I6
sS'2004_26.0_Native Hawaiian or Other Pacific Islander'
p1544
I469
sS'1999_26.0_White'
p1545
I2844
sS'2015_13.0_White'
p1546
g4
(g8
S'}\x1a\x00\x00\x00\x00\x00\x00'
p1547
tp1548
Rp1549
sS'2002_52.0_White'
p1550
I565
sS'2008_27.0_Hispanic'
p1551
I29
sS'1999_40.0_Native Hawaiian or Other Pacific Islander'
p1552
I252
sS'2005_51.1201_White'
p1553
I9996
sS'2008_14.0_American Indian or Alaska Native'
p1554
I13
sS'2007_27.0_Asian'
p1555
I77
sS'2012_51.1201_Hispanic'
p1556
g4
(g8
S',\x04\x00\x00\x00\x00\x00\x00'
p1557
tp1558
Rp1559
sS'2014_52.0_Hispanic'
p1560
g4
(g8
S'\x8d\x00\x00\x00\x00\x00\x00\x00'
p1561
tp1562
Rp1563
sS'2011_14.0_White'
p1564
g4
(g8
S'A\t\x00\x00\x00\x00\x00\x00'
p1565
tp1566
Rp1567
sS'2000_26.0_White'
p1568
I2780
sS'2011_22.0101_Native Hawaiian or Other Pacific Islander'
p1569
g4
(g8
S'\x8a\x00\x00\x00\x00\x00\x00\x00'
p1570
tp1571
Rp1572
sS'2011_26.0_Asian'
p1573
g4
(g8
S'y\x02\x00\x00\x00\x00\x00\x00'
p1574
tp1575
Rp1576
sS'2010_26.0_Hispanic'
p1577
I165
sS'2014_26.0_Native Hawaiian or Other Pacific Islander'
p1578
g4
(g8
S'\x0f\x00\x00\x00\x00\x00\x00\x00'
p1579
tp1580
Rp1581
sS'2008_52.0_Asian'
p1582
I95
sS'2000_14.0_White'
p1583
I1948
sS'2001_26.0_Asian'
p1584
I386
sS'2008_22.0101_Black or African American'
p1585
I2630
sS'1999_52.0_White'
p1586
I778
sS'2008_51.1201_American Indian or Alaska Native'
p1587
I124
sS'2013_40.0_Asian'
p1588
g4
(g8
S'\xf7\x00\x00\x00\x00\x00\x00\x00'
p1589
tp1590
Rp1591
sS'2002_40.0_Native Hawaiian or Other Pacific Islander'
p1592
I182
sS'2001_13.0_Asian'
p1593
I199
sS'2003_26.0_Black or African American'
p1594
I107
sS'2008_52.0_American Indian or Alaska Native'
p1595
I13
sS'2007_40.0_White'
p1596
I2042
sS'2012_52.0_Black or African American'
p1597
g4
(g8
S'X\x01\x00\x00\x00\x00\x00\x00'
p1598
tp1599
Rp1600
sS'2006_13.0_Hispanic'
p1601
I390
sS'2005_52.0_Native Hawaiian or Other Pacific Islander'
p1602
I68
sS'2015_51.0401_Hispanic'
p1603
g4
(g8
S'\x97\x01\x00\x00\x00\x00\x00\x00'
p1604
tp1605
Rp1606
sS'2000_52.0_Hispanic'
p1607
I18
sS'2008_51.0401_Black or African American'
p1608
I223
sS'2008_51.1201_Asian'
p1609
I3092
sS'2008_51.1201_Native Hawaiian or Other Pacific Islander'
p1610
I3092
sS'2015_26.0_American Indian or Alaska Native'
p1611
g4
(g8
S'\x18\x00\x00\x00\x00\x00\x00\x00'
p1612
tp1613
Rp1614
sS'2015_13.0_American Indian or Alaska Native'
p1615
g4
(g8
S'J\x00\x00\x00\x00\x00\x00\x00'
p1616
tp1617
Rp1618
sS'2008_26.0_Native Hawaiian or Other Pacific Islander'
p1619
I547
sS'2004_27.0_Black or African American'
p1620
I8
sS'2007_13.0_Native Hawaiian or Other Pacific Islander'
p1621
I282
sS'2000_14.0_American Indian or Alaska Native'
p1622
I5
sS'2012_22.0101_White'
p1623
g4
(g8
S'\x00{\x00\x00\x00\x00\x00\x00'
p1624
tp1625
Rp1626
sS'2011_40.0_White'
p1627
g4
(g8
S'\x12\t\x00\x00\x00\x00\x00\x00'
p1628
tp1629
Rp1630
sS'2012_40.0_Native Hawaiian or Other Pacific Islander'
p1631
g4
(g8
S'\x05\x00\x00\x00\x00\x00\x00\x00'
p1632
tp1633
Rp1634
sS'2003_27.0_Asian'
p1635
I42
sS'2015_51.0401_Black or African American'
p1636
g4
(g8
S'\xe9\x00\x00\x00\x00\x00\x00\x00'
p1637
tp1638
Rp1639
sS'2010_14.0_Black or African American'
p1640
I74
sS'1999_52.0_Native Hawaiian or Other Pacific Islander'
p1641
I63
sS'2014_52.0_American Indian or Alaska Native'
p1642
g4
(g8
S'\r\x00\x00\x00\x00\x00\x00\x00'
p1643
tp1644
Rp1645
sS'2001_26.0_Hispanic'
p1646
I153
sS'2004_51.1201_White'
p1647
I9805
sS'2000_52.0_Asian'
p1648
I64
sS'2011_27.0_Native Hawaiian or Other Pacific Islander'
p1649
g4
(g8
S'\x01\x00\x00\x00\x00\x00\x00\x00'
p1650
tp1651
Rp1652
sS'2004_14.0_Asian'
p1653
I343
sS'2007_51.1201_Native Hawaiian or Other Pacific Islander'
p1654
I3110
sS'2012_27.0_Asian'
p1655
g4
(g8
S'F\x00\x00\x00\x00\x00\x00\x00'
p1656
tp1657
Rp1658
sS'2007_26.0_Hispanic'
p1659
I202
sS'1999_14.0_American Indian or Alaska Native'
p1660
I10
sS'1999_26.0_American Indian or Alaska Native'
p1661
I9
sS'2012_51.0401_American Indian or Alaska Native'
p1662
g4
(g8
S'!\x00\x00\x00\x00\x00\x00\x00'
p1663
tp1664
Rp1665
sS'2004_13.0_American Indian or Alaska Native'
p1666
I53
sS'2002_13.0_Native Hawaiian or Other Pacific Islander'
p1667
I172
sS'2012_52.0_American Indian or Alaska Native'
p1668
g4
(g8
S'\r\x00\x00\x00\x00\x00\x00\x00'
p1669
tp1670
Rp1671
sS'2000_52.0_White'
p1672
I649
sS'2005_22.0101_Native Hawaiian or Other Pacific Islander'
p1673
I3095
sS'2003_52.0_Hispanic'
p1674
I25
sS'2002_26.0_Asian'
p1675
I387
sS'2011_13.0_Hispanic'
p1676
g4
(g8
S'^\x02\x00\x00\x00\x00\x00\x00'
p1677
tp1678
Rp1679
sS'2007_51.0401_White'
p1680
I2777
sS'2001_40.0_Asian'
p1681
I240
sS'2012_51.0401_Asian'
p1682
g4
(g8
S'\xbd\x03\x00\x00\x00\x00\x00\x00'
p1683
tp1684
Rp1685
sS'2013_14.0_Hispanic'
p1686
g4
(g8
S'\xc5\x00\x00\x00\x00\x00\x00\x00'
p1687
tp1688
Rp1689
sS'2009_13.0_Asian'
p1690
I246
sS'2000_27.0_American Indian or Alaska Native'
p1691
I2
sS'2001_14.0_American Indian or Alaska Native'
p1692
I10
sS'2006_27.0_Hispanic'
p1693
I27
sS'2008_14.0_Asian'
p1694
I501
sS'2000_26.0_Black or African American'
p1695
I104
sS'2007_40.0_American Indian or Alaska Native'
p1696
I9
sS'2006_22.0101_Hispanic'
p1697
I3041
sS'2011_13.0_American Indian or Alaska Native'
p1698
g4
(g8
S'K\x00\x00\x00\x00\x00\x00\x00'
p1699
tp1700
Rp1701
sS'2003_40.0_Black or African American'
p1702
I76
sS'2002_22.0101_Asian'
p1703
I2441
sS'2000_51.0401_American Indian or Alaska Native'
p1704
I17
sS'1999_52.0_Asian'
p1705
I63
sS'2010_14.0_Native Hawaiian or Other Pacific Islander'
p1706
I305
sS'2007_22.0101_Black or African American'
p1707
I2893
sS'2013_51.1201_American Indian or Alaska Native'
p1708
g4
(g8
S'F\x00\x00\x00\x00\x00\x00\x00'
p1709
tp1710
Rp1711
sS'2011_13.0_Asian'
p1712
g4
(g8
S'\x1c\x01\x00\x00\x00\x00\x00\x00'
p1713
tp1714
Rp1715
sS'2015_14.0_Asian'
p1716
g4
(g8
S'\x8f\x02\x00\x00\x00\x00\x00\x00'
p1717
tp1718
Rp1719
sS'2015_13.0_Asian'
p1720
g4
(g8
S'\x85\x01\x00\x00\x00\x00\x00\x00'
p1721
tp1722
Rp1723
sS'2005_52.0_American Indian or Alaska Native'
p1724
I5
sS'2004_51.1201_American Indian or Alaska Native'
p1725
I106
sS'2011_52.0_American Indian or Alaska Native'
p1726
g4
(g8
S'\t\x00\x00\x00\x00\x00\x00\x00'
p1727
tp1728
Rp1729
sS'2002_51.0401_Black or African American'
p1730
I173
sS'2012_13.0_White'
p1731
g4
(g8
S'\xc4\x16\x00\x00\x00\x00\x00\x00'
p1732
tp1733
Rp1734
sS'2002_26.0_Black or African American'
p1735
I111
s.